ARM GAS  C:\Users\Will\AppData\Local\Temp\cc0U1HKI.s 			page 1


   1              		.syntax unified
   2              		.cpu cortex-m3
   3              		.fpu softvfp
   4              		.eabi_attribute 20, 1
   5              		.eabi_attribute 21, 1
   6              		.eabi_attribute 23, 3
   7              		.eabi_attribute 24, 1
   8              		.eabi_attribute 25, 1
   9              		.eabi_attribute 26, 1
  10              		.eabi_attribute 30, 1
  11              		.eabi_attribute 34, 1
  12              		.eabi_attribute 18, 4
  13              		.thumb
  14              		.syntax unified
  15              		.file	"ENC_ISR.c"
  16              		.text
  17              	.Ltext0:
  18              		.cfi_sections	.debug_frame
  19              		.section	.text.ENC_ISR_Interrupt,"ax",%progbits
  20              		.align	2
  21              		.global	ENC_ISR_Interrupt
  22              		.thumb
  23              		.thumb_func
  24              		.type	ENC_ISR_Interrupt, %function
  25              	ENC_ISR_Interrupt:
  26              	.LFB3:
  27              		.file 1 "Generated_Source\\PSoC5\\ENC_ISR.c"
   1:Generated_Source\PSoC5/ENC_ISR.c **** /*******************************************************************************
   2:Generated_Source\PSoC5/ENC_ISR.c **** * File Name: ENC_ISR.c  
   3:Generated_Source\PSoC5/ENC_ISR.c **** * Version 1.71
   4:Generated_Source\PSoC5/ENC_ISR.c **** *
   5:Generated_Source\PSoC5/ENC_ISR.c **** *  Description:
   6:Generated_Source\PSoC5/ENC_ISR.c **** *   API for controlling the state of an interrupt.
   7:Generated_Source\PSoC5/ENC_ISR.c **** *
   8:Generated_Source\PSoC5/ENC_ISR.c **** *
   9:Generated_Source\PSoC5/ENC_ISR.c **** *  Note:
  10:Generated_Source\PSoC5/ENC_ISR.c **** *
  11:Generated_Source\PSoC5/ENC_ISR.c **** ********************************************************************************
  12:Generated_Source\PSoC5/ENC_ISR.c **** * Copyright 2008-2015, Cypress Semiconductor Corporation.  All rights reserved.
  13:Generated_Source\PSoC5/ENC_ISR.c **** * You may use this file only in accordance with the license, terms, conditions, 
  14:Generated_Source\PSoC5/ENC_ISR.c **** * disclaimers, and limitations in the end user license agreement accompanying 
  15:Generated_Source\PSoC5/ENC_ISR.c **** * the software package with which this file was provided.
  16:Generated_Source\PSoC5/ENC_ISR.c **** *******************************************************************************/
  17:Generated_Source\PSoC5/ENC_ISR.c **** 
  18:Generated_Source\PSoC5/ENC_ISR.c **** 
  19:Generated_Source\PSoC5/ENC_ISR.c **** #include <cydevice_trm.h>
  20:Generated_Source\PSoC5/ENC_ISR.c **** #include <CyLib.h>
  21:Generated_Source\PSoC5/ENC_ISR.c **** #include <ENC_ISR.h>
  22:Generated_Source\PSoC5/ENC_ISR.c **** #include "cyapicallbacks.h"
  23:Generated_Source\PSoC5/ENC_ISR.c **** 
  24:Generated_Source\PSoC5/ENC_ISR.c **** #if !defined(ENC_ISR__REMOVED) /* Check for removal by optimization */
  25:Generated_Source\PSoC5/ENC_ISR.c **** 
  26:Generated_Source\PSoC5/ENC_ISR.c **** /*******************************************************************************
  27:Generated_Source\PSoC5/ENC_ISR.c **** *  Place your includes, defines and code here 
  28:Generated_Source\PSoC5/ENC_ISR.c **** ********************************************************************************/
  29:Generated_Source\PSoC5/ENC_ISR.c **** /* `#START ENC_ISR_intc` */
  30:Generated_Source\PSoC5/ENC_ISR.c **** #include "ENC.h"
ARM GAS  C:\Users\Will\AppData\Local\Temp\cc0U1HKI.s 			page 2


  31:Generated_Source\PSoC5/ENC_ISR.c **** int8 trigger = 0;
  32:Generated_Source\PSoC5/ENC_ISR.c **** int8 chA = 0;
  33:Generated_Source\PSoC5/ENC_ISR.c **** int8 lastChA = 0;
  34:Generated_Source\PSoC5/ENC_ISR.c **** extern volatile uint16 enc_value;
  35:Generated_Source\PSoC5/ENC_ISR.c **** extern volatile int8 enc_isr_flag;
  36:Generated_Source\PSoC5/ENC_ISR.c **** /* `#END` */
  37:Generated_Source\PSoC5/ENC_ISR.c **** 
  38:Generated_Source\PSoC5/ENC_ISR.c **** #ifndef CYINT_IRQ_BASE
  39:Generated_Source\PSoC5/ENC_ISR.c **** #define CYINT_IRQ_BASE      16
  40:Generated_Source\PSoC5/ENC_ISR.c **** #endif /* CYINT_IRQ_BASE */
  41:Generated_Source\PSoC5/ENC_ISR.c **** #ifndef CYINT_VECT_TABLE
  42:Generated_Source\PSoC5/ENC_ISR.c **** #define CYINT_VECT_TABLE    ((cyisraddress **) CYREG_NVIC_VECT_OFFSET)
  43:Generated_Source\PSoC5/ENC_ISR.c **** #endif /* CYINT_VECT_TABLE */
  44:Generated_Source\PSoC5/ENC_ISR.c **** 
  45:Generated_Source\PSoC5/ENC_ISR.c **** /* Declared in startup, used to set unused interrupts to. */
  46:Generated_Source\PSoC5/ENC_ISR.c **** CY_ISR_PROTO(IntDefaultHandler);
  47:Generated_Source\PSoC5/ENC_ISR.c **** 
  48:Generated_Source\PSoC5/ENC_ISR.c **** 
  49:Generated_Source\PSoC5/ENC_ISR.c **** /*******************************************************************************
  50:Generated_Source\PSoC5/ENC_ISR.c **** * Function Name: ENC_ISR_Start
  51:Generated_Source\PSoC5/ENC_ISR.c **** ********************************************************************************
  52:Generated_Source\PSoC5/ENC_ISR.c **** *
  53:Generated_Source\PSoC5/ENC_ISR.c **** * Summary:
  54:Generated_Source\PSoC5/ENC_ISR.c **** *  Set up the interrupt and enable it. This function disables the interrupt, 
  55:Generated_Source\PSoC5/ENC_ISR.c **** *  sets the default interrupt vector, sets the priority from the value in the
  56:Generated_Source\PSoC5/ENC_ISR.c **** *  Design Wide Resources Interrupt Editor, then enables the interrupt to the 
  57:Generated_Source\PSoC5/ENC_ISR.c **** *  interrupt controller.
  58:Generated_Source\PSoC5/ENC_ISR.c **** *
  59:Generated_Source\PSoC5/ENC_ISR.c **** * Parameters:  
  60:Generated_Source\PSoC5/ENC_ISR.c **** *   None
  61:Generated_Source\PSoC5/ENC_ISR.c **** *
  62:Generated_Source\PSoC5/ENC_ISR.c **** * Return:
  63:Generated_Source\PSoC5/ENC_ISR.c **** *   None
  64:Generated_Source\PSoC5/ENC_ISR.c **** *
  65:Generated_Source\PSoC5/ENC_ISR.c **** *******************************************************************************/
  66:Generated_Source\PSoC5/ENC_ISR.c **** void ENC_ISR_Start(void)
  67:Generated_Source\PSoC5/ENC_ISR.c **** {
  68:Generated_Source\PSoC5/ENC_ISR.c ****     /* For all we know the interrupt is active. */
  69:Generated_Source\PSoC5/ENC_ISR.c ****     ENC_ISR_Disable();
  70:Generated_Source\PSoC5/ENC_ISR.c **** 
  71:Generated_Source\PSoC5/ENC_ISR.c ****     /* Set the ISR to point to the ENC_ISR Interrupt. */
  72:Generated_Source\PSoC5/ENC_ISR.c ****     ENC_ISR_SetVector(&ENC_ISR_Interrupt);
  73:Generated_Source\PSoC5/ENC_ISR.c **** 
  74:Generated_Source\PSoC5/ENC_ISR.c ****     /* Set the priority. */
  75:Generated_Source\PSoC5/ENC_ISR.c ****     ENC_ISR_SetPriority((uint8)ENC_ISR_INTC_PRIOR_NUMBER);
  76:Generated_Source\PSoC5/ENC_ISR.c **** 
  77:Generated_Source\PSoC5/ENC_ISR.c ****     /* Enable it. */
  78:Generated_Source\PSoC5/ENC_ISR.c ****     ENC_ISR_Enable();
  79:Generated_Source\PSoC5/ENC_ISR.c **** }
  80:Generated_Source\PSoC5/ENC_ISR.c **** 
  81:Generated_Source\PSoC5/ENC_ISR.c **** 
  82:Generated_Source\PSoC5/ENC_ISR.c **** /*******************************************************************************
  83:Generated_Source\PSoC5/ENC_ISR.c **** * Function Name: ENC_ISR_StartEx
  84:Generated_Source\PSoC5/ENC_ISR.c **** ********************************************************************************
  85:Generated_Source\PSoC5/ENC_ISR.c **** *
  86:Generated_Source\PSoC5/ENC_ISR.c **** * Summary:
  87:Generated_Source\PSoC5/ENC_ISR.c **** *  Sets up the interrupt and enables it. This function disables the interrupt,
ARM GAS  C:\Users\Will\AppData\Local\Temp\cc0U1HKI.s 			page 3


  88:Generated_Source\PSoC5/ENC_ISR.c **** *  sets the interrupt vector based on the address passed in, sets the priority 
  89:Generated_Source\PSoC5/ENC_ISR.c **** *  from the value in the Design Wide Resources Interrupt Editor, then enables 
  90:Generated_Source\PSoC5/ENC_ISR.c **** *  the interrupt to the interrupt controller.
  91:Generated_Source\PSoC5/ENC_ISR.c **** *  
  92:Generated_Source\PSoC5/ENC_ISR.c **** *  When defining ISR functions, the CY_ISR and CY_ISR_PROTO macros should be 
  93:Generated_Source\PSoC5/ENC_ISR.c **** *  used to provide consistent definition across compilers:
  94:Generated_Source\PSoC5/ENC_ISR.c **** *  
  95:Generated_Source\PSoC5/ENC_ISR.c **** *  Function definition example:
  96:Generated_Source\PSoC5/ENC_ISR.c **** *   CY_ISR(MyISR)
  97:Generated_Source\PSoC5/ENC_ISR.c **** *   {
  98:Generated_Source\PSoC5/ENC_ISR.c **** *   }
  99:Generated_Source\PSoC5/ENC_ISR.c **** *   Function prototype example:
 100:Generated_Source\PSoC5/ENC_ISR.c **** *   CY_ISR_PROTO(MyISR);
 101:Generated_Source\PSoC5/ENC_ISR.c **** *
 102:Generated_Source\PSoC5/ENC_ISR.c **** * Parameters:  
 103:Generated_Source\PSoC5/ENC_ISR.c **** *   address: Address of the ISR to set in the interrupt vector table.
 104:Generated_Source\PSoC5/ENC_ISR.c **** *
 105:Generated_Source\PSoC5/ENC_ISR.c **** * Return:
 106:Generated_Source\PSoC5/ENC_ISR.c **** *   None
 107:Generated_Source\PSoC5/ENC_ISR.c **** *
 108:Generated_Source\PSoC5/ENC_ISR.c **** *******************************************************************************/
 109:Generated_Source\PSoC5/ENC_ISR.c **** void ENC_ISR_StartEx(cyisraddress address)
 110:Generated_Source\PSoC5/ENC_ISR.c **** {
 111:Generated_Source\PSoC5/ENC_ISR.c ****     /* For all we know the interrupt is active. */
 112:Generated_Source\PSoC5/ENC_ISR.c ****     ENC_ISR_Disable();
 113:Generated_Source\PSoC5/ENC_ISR.c **** 
 114:Generated_Source\PSoC5/ENC_ISR.c ****     /* Set the ISR to point to the ENC_ISR Interrupt. */
 115:Generated_Source\PSoC5/ENC_ISR.c ****     ENC_ISR_SetVector(address);
 116:Generated_Source\PSoC5/ENC_ISR.c **** 
 117:Generated_Source\PSoC5/ENC_ISR.c ****     /* Set the priority. */
 118:Generated_Source\PSoC5/ENC_ISR.c ****     ENC_ISR_SetPriority((uint8)ENC_ISR_INTC_PRIOR_NUMBER);
 119:Generated_Source\PSoC5/ENC_ISR.c **** 
 120:Generated_Source\PSoC5/ENC_ISR.c ****     /* Enable it. */
 121:Generated_Source\PSoC5/ENC_ISR.c ****     ENC_ISR_Enable();
 122:Generated_Source\PSoC5/ENC_ISR.c **** }
 123:Generated_Source\PSoC5/ENC_ISR.c **** 
 124:Generated_Source\PSoC5/ENC_ISR.c **** 
 125:Generated_Source\PSoC5/ENC_ISR.c **** /*******************************************************************************
 126:Generated_Source\PSoC5/ENC_ISR.c **** * Function Name: ENC_ISR_Stop
 127:Generated_Source\PSoC5/ENC_ISR.c **** ********************************************************************************
 128:Generated_Source\PSoC5/ENC_ISR.c **** *
 129:Generated_Source\PSoC5/ENC_ISR.c **** * Summary:
 130:Generated_Source\PSoC5/ENC_ISR.c **** *   Disables and removes the interrupt.
 131:Generated_Source\PSoC5/ENC_ISR.c **** *
 132:Generated_Source\PSoC5/ENC_ISR.c **** * Parameters:  
 133:Generated_Source\PSoC5/ENC_ISR.c **** *   None
 134:Generated_Source\PSoC5/ENC_ISR.c **** *
 135:Generated_Source\PSoC5/ENC_ISR.c **** * Return:
 136:Generated_Source\PSoC5/ENC_ISR.c **** *   None
 137:Generated_Source\PSoC5/ENC_ISR.c **** *
 138:Generated_Source\PSoC5/ENC_ISR.c **** *******************************************************************************/
 139:Generated_Source\PSoC5/ENC_ISR.c **** void ENC_ISR_Stop(void)
 140:Generated_Source\PSoC5/ENC_ISR.c **** {
 141:Generated_Source\PSoC5/ENC_ISR.c ****     /* Disable this interrupt. */
 142:Generated_Source\PSoC5/ENC_ISR.c ****     ENC_ISR_Disable();
 143:Generated_Source\PSoC5/ENC_ISR.c **** 
 144:Generated_Source\PSoC5/ENC_ISR.c ****     /* Set the ISR to point to the passive one. */
ARM GAS  C:\Users\Will\AppData\Local\Temp\cc0U1HKI.s 			page 4


 145:Generated_Source\PSoC5/ENC_ISR.c ****     ENC_ISR_SetVector(&IntDefaultHandler);
 146:Generated_Source\PSoC5/ENC_ISR.c **** }
 147:Generated_Source\PSoC5/ENC_ISR.c **** 
 148:Generated_Source\PSoC5/ENC_ISR.c **** 
 149:Generated_Source\PSoC5/ENC_ISR.c **** /*******************************************************************************
 150:Generated_Source\PSoC5/ENC_ISR.c **** * Function Name: ENC_ISR_Interrupt
 151:Generated_Source\PSoC5/ENC_ISR.c **** ********************************************************************************
 152:Generated_Source\PSoC5/ENC_ISR.c **** *
 153:Generated_Source\PSoC5/ENC_ISR.c **** * Summary:
 154:Generated_Source\PSoC5/ENC_ISR.c **** *   The default Interrupt Service Routine for ENC_ISR.
 155:Generated_Source\PSoC5/ENC_ISR.c **** *
 156:Generated_Source\PSoC5/ENC_ISR.c **** *   Add custom code between the coments to keep the next version of this file
 157:Generated_Source\PSoC5/ENC_ISR.c **** *   from over writting your code.
 158:Generated_Source\PSoC5/ENC_ISR.c **** *
 159:Generated_Source\PSoC5/ENC_ISR.c **** * Parameters:  
 160:Generated_Source\PSoC5/ENC_ISR.c **** *
 161:Generated_Source\PSoC5/ENC_ISR.c **** * Return:
 162:Generated_Source\PSoC5/ENC_ISR.c **** *   None
 163:Generated_Source\PSoC5/ENC_ISR.c **** *
 164:Generated_Source\PSoC5/ENC_ISR.c **** *******************************************************************************/
 165:Generated_Source\PSoC5/ENC_ISR.c **** CY_ISR(ENC_ISR_Interrupt)
 166:Generated_Source\PSoC5/ENC_ISR.c **** {
  28              		.loc 1 166 0
  29              		.cfi_startproc
  30              		@ args = 0, pretend = 0, frame = 0
  31              		@ frame_needed = 0, uses_anonymous_args = 0
  32 0000 08B5     		push	{r3, lr}
  33              		.cfi_def_cfa_offset 8
  34              		.cfi_offset 3, -8
  35              		.cfi_offset 14, -4
 167:Generated_Source\PSoC5/ENC_ISR.c ****     #ifdef ENC_ISR_INTERRUPT_INTERRUPT_CALLBACK
 168:Generated_Source\PSoC5/ENC_ISR.c ****         ENC_ISR_Interrupt_InterruptCallback();
 169:Generated_Source\PSoC5/ENC_ISR.c ****     #endif /* ENC_ISR_INTERRUPT_INTERRUPT_CALLBACK */ 
 170:Generated_Source\PSoC5/ENC_ISR.c **** 
 171:Generated_Source\PSoC5/ENC_ISR.c ****     /*  Place your Interrupt code here. */
 172:Generated_Source\PSoC5/ENC_ISR.c ****     /* `#START ENC_ISR_Interrupt` */
 173:Generated_Source\PSoC5/ENC_ISR.c ****      CyDelayUs(50); 
  36              		.loc 1 173 0
  37 0002 3220     		movs	r0, #50
  38 0004 FFF7FEFF 		bl	CyDelayUs
  39              	.LVL0:
 174:Generated_Source\PSoC5/ENC_ISR.c ****             
 175:Generated_Source\PSoC5/ENC_ISR.c ****             // Read current states   
 176:Generated_Source\PSoC5/ENC_ISR.c ****             chA = CyPins_ReadPin(ENC_0); 
  40              		.loc 1 176 0
  41 0008 184B     		ldr	r3, .L6
  42 000a 1B78     		ldrb	r3, [r3]	@ zero_extendqisi2
  43 000c 03F01003 		and	r3, r3, #16
  44 0010 5BB2     		sxtb	r3, r3
  45 0012 174A     		ldr	r2, .L6+4
  46 0014 1370     		strb	r3, [r2]
 177:Generated_Source\PSoC5/ENC_ISR.c ****             //00 -> 10 -> 11 -> 01 -> 00
 178:Generated_Source\PSoC5/ENC_ISR.c ****             //ENC = 0xBA   
 179:Generated_Source\PSoC5/ENC_ISR.c ****   
 180:Generated_Source\PSoC5/ENC_ISR.c ****             if(chA != lastChA){ // Check the state of A to see if it's changed direction. Use state
  47              		.loc 1 180 0
  48 0016 92F90120 		ldrsb	r2, [r2, #1]
ARM GAS  C:\Users\Will\AppData\Local\Temp\cc0U1HKI.s 			page 5


  49 001a 9342     		cmp	r3, r2
  50 001c 1DD0     		beq	.L2
 181:Generated_Source\PSoC5/ENC_ISR.c ****                 trigger++;
  51              		.loc 1 181 0
  52 001e 1449     		ldr	r1, .L6+4
  53 0020 8A78     		ldrb	r2, [r1, #2]	@ zero_extendqisi2
  54 0022 0132     		adds	r2, r2, #1
  55 0024 52B2     		sxtb	r2, r2
  56 0026 8A70     		strb	r2, [r1, #2]
 182:Generated_Source\PSoC5/ENC_ISR.c ****                 if(trigger == 2){ // Divide State change
  57              		.loc 1 182 0
  58 0028 022A     		cmp	r2, #2
  59 002a 16D1     		bne	.L2
 183:Generated_Source\PSoC5/ENC_ISR.c ****                     if(CyPins_ReadPin(ENC_1) != chA)
  60              		.loc 1 183 0
  61 002c 114A     		ldr	r2, .L6+8
  62 002e 1278     		ldrb	r2, [r2]	@ zero_extendqisi2
  63 0030 02F01002 		and	r2, r2, #16
  64 0034 D2B2     		uxtb	r2, r2
  65 0036 9A42     		cmp	r2, r3
  66 0038 06D0     		beq	.L3
 184:Generated_Source\PSoC5/ENC_ISR.c ****                     { 
 185:Generated_Source\PSoC5/ENC_ISR.c ****                         enc_value += 1;
  67              		.loc 1 185 0
  68 003a 0F49     		ldr	r1, .L6+12
  69 003c 0A88     		ldrh	r2, [r1]
  70 003e 92B2     		uxth	r2, r2
  71 0040 0132     		adds	r2, r2, #1
  72 0042 92B2     		uxth	r2, r2
  73 0044 0A80     		strh	r2, [r1]	@ movhi
  74 0046 05E0     		b	.L4
  75              	.L3:
 186:Generated_Source\PSoC5/ENC_ISR.c ****                     }//cw 
 187:Generated_Source\PSoC5/ENC_ISR.c ****                     
 188:Generated_Source\PSoC5/ENC_ISR.c ****                     else          
 189:Generated_Source\PSoC5/ENC_ISR.c ****                     { 
 190:Generated_Source\PSoC5/ENC_ISR.c ****                         enc_value -= 1; 
  76              		.loc 1 190 0
  77 0048 0B49     		ldr	r1, .L6+12
  78 004a 0A88     		ldrh	r2, [r1]
  79 004c 92B2     		uxth	r2, r2
  80 004e 013A     		subs	r2, r2, #1
  81 0050 92B2     		uxth	r2, r2
  82 0052 0A80     		strh	r2, [r1]	@ movhi
  83              	.L4:
 191:Generated_Source\PSoC5/ENC_ISR.c ****                     }//ccw 
 192:Generated_Source\PSoC5/ENC_ISR.c ****                     trigger = 0;
  84              		.loc 1 192 0
  85 0054 0021     		movs	r1, #0
  86 0056 064A     		ldr	r2, .L6+4
  87 0058 9170     		strb	r1, [r2, #2]
  88              	.L2:
 193:Generated_Source\PSoC5/ENC_ISR.c ****                 }
 194:Generated_Source\PSoC5/ENC_ISR.c ****             }
 195:Generated_Source\PSoC5/ENC_ISR.c ****             lastChA = chA; // Set previous state to most current state 
  89              		.loc 1 195 0
  90 005a 054A     		ldr	r2, .L6+4
ARM GAS  C:\Users\Will\AppData\Local\Temp\cc0U1HKI.s 			page 6


  91 005c 5370     		strb	r3, [r2, #1]
 196:Generated_Source\PSoC5/ENC_ISR.c ****             
 197:Generated_Source\PSoC5/ENC_ISR.c ****             enc_isr_flag = 1;
  92              		.loc 1 197 0
  93 005e 0122     		movs	r2, #1
  94 0060 064B     		ldr	r3, .L6+16
  95 0062 1A70     		strb	r2, [r3]
 198:Generated_Source\PSoC5/ENC_ISR.c ****             
 199:Generated_Source\PSoC5/ENC_ISR.c ****             ENC_ClearInterrupt();
  96              		.loc 1 199 0
  97 0064 FFF7FEFF 		bl	ENC_ClearInterrupt
  98              	.LVL1:
  99 0068 08BD     		pop	{r3, pc}
 100              	.L7:
 101 006a 00BF     		.align	2
 102              	.L6:
 103 006c 05500040 		.word	1073762309
 104 0070 00000000 		.word	.LANCHOR0
 105 0074 06500040 		.word	1073762310
 106 0078 00000000 		.word	enc_value
 107 007c 00000000 		.word	enc_isr_flag
 108              		.cfi_endproc
 109              	.LFE3:
 110              		.size	ENC_ISR_Interrupt, .-ENC_ISR_Interrupt
 111              		.section	.text.ENC_ISR_SetVector,"ax",%progbits
 112              		.align	2
 113              		.global	ENC_ISR_SetVector
 114              		.thumb
 115              		.thumb_func
 116              		.type	ENC_ISR_SetVector, %function
 117              	ENC_ISR_SetVector:
 118              	.LFB4:
 200:Generated_Source\PSoC5/ENC_ISR.c ****     /* `#END` */
 201:Generated_Source\PSoC5/ENC_ISR.c **** }
 202:Generated_Source\PSoC5/ENC_ISR.c **** 
 203:Generated_Source\PSoC5/ENC_ISR.c **** 
 204:Generated_Source\PSoC5/ENC_ISR.c **** /*******************************************************************************
 205:Generated_Source\PSoC5/ENC_ISR.c **** * Function Name: ENC_ISR_SetVector
 206:Generated_Source\PSoC5/ENC_ISR.c **** ********************************************************************************
 207:Generated_Source\PSoC5/ENC_ISR.c **** *
 208:Generated_Source\PSoC5/ENC_ISR.c **** * Summary:
 209:Generated_Source\PSoC5/ENC_ISR.c **** *   Change the ISR vector for the Interrupt. Note calling ENC_ISR_Start
 210:Generated_Source\PSoC5/ENC_ISR.c **** *   will override any effect this method would have had. To set the vector 
 211:Generated_Source\PSoC5/ENC_ISR.c **** *   before the component has been started use ENC_ISR_StartEx instead.
 212:Generated_Source\PSoC5/ENC_ISR.c **** * 
 213:Generated_Source\PSoC5/ENC_ISR.c **** *   When defining ISR functions, the CY_ISR and CY_ISR_PROTO macros should be 
 214:Generated_Source\PSoC5/ENC_ISR.c **** *   used to provide consistent definition across compilers:
 215:Generated_Source\PSoC5/ENC_ISR.c **** *
 216:Generated_Source\PSoC5/ENC_ISR.c **** *   Function definition example:
 217:Generated_Source\PSoC5/ENC_ISR.c **** *   CY_ISR(MyISR)
 218:Generated_Source\PSoC5/ENC_ISR.c **** *   {
 219:Generated_Source\PSoC5/ENC_ISR.c **** *   }
 220:Generated_Source\PSoC5/ENC_ISR.c **** *
 221:Generated_Source\PSoC5/ENC_ISR.c **** *   Function prototype example:
 222:Generated_Source\PSoC5/ENC_ISR.c **** *     CY_ISR_PROTO(MyISR);
 223:Generated_Source\PSoC5/ENC_ISR.c **** *
 224:Generated_Source\PSoC5/ENC_ISR.c **** * Parameters:
ARM GAS  C:\Users\Will\AppData\Local\Temp\cc0U1HKI.s 			page 7


 225:Generated_Source\PSoC5/ENC_ISR.c **** *   address: Address of the ISR to set in the interrupt vector table.
 226:Generated_Source\PSoC5/ENC_ISR.c **** *
 227:Generated_Source\PSoC5/ENC_ISR.c **** * Return:
 228:Generated_Source\PSoC5/ENC_ISR.c **** *   None
 229:Generated_Source\PSoC5/ENC_ISR.c **** *
 230:Generated_Source\PSoC5/ENC_ISR.c **** *******************************************************************************/
 231:Generated_Source\PSoC5/ENC_ISR.c **** void ENC_ISR_SetVector(cyisraddress address)
 232:Generated_Source\PSoC5/ENC_ISR.c **** {
 119              		.loc 1 232 0
 120              		.cfi_startproc
 121              		@ args = 0, pretend = 0, frame = 0
 122              		@ frame_needed = 0, uses_anonymous_args = 0
 123              		@ link register save eliminated.
 124              	.LVL2:
 233:Generated_Source\PSoC5/ENC_ISR.c ****     cyisraddress * ramVectorTable;
 234:Generated_Source\PSoC5/ENC_ISR.c **** 
 235:Generated_Source\PSoC5/ENC_ISR.c ****     ramVectorTable = (cyisraddress *) *CYINT_VECT_TABLE;
 125              		.loc 1 235 0
 126 0000 014B     		ldr	r3, .L9
 127 0002 1B68     		ldr	r3, [r3]
 128              	.LVL3:
 236:Generated_Source\PSoC5/ENC_ISR.c **** 
 237:Generated_Source\PSoC5/ENC_ISR.c ****     ramVectorTable[CYINT_IRQ_BASE + (uint32)ENC_ISR__INTC_NUMBER] = address;
 129              		.loc 1 237 0
 130 0004 1865     		str	r0, [r3, #80]
 131 0006 7047     		bx	lr
 132              	.L10:
 133              		.align	2
 134              	.L9:
 135 0008 08ED00E0 		.word	-536810232
 136              		.cfi_endproc
 137              	.LFE4:
 138              		.size	ENC_ISR_SetVector, .-ENC_ISR_SetVector
 139              		.section	.text.ENC_ISR_GetVector,"ax",%progbits
 140              		.align	2
 141              		.global	ENC_ISR_GetVector
 142              		.thumb
 143              		.thumb_func
 144              		.type	ENC_ISR_GetVector, %function
 145              	ENC_ISR_GetVector:
 146              	.LFB5:
 238:Generated_Source\PSoC5/ENC_ISR.c **** }
 239:Generated_Source\PSoC5/ENC_ISR.c **** 
 240:Generated_Source\PSoC5/ENC_ISR.c **** 
 241:Generated_Source\PSoC5/ENC_ISR.c **** /*******************************************************************************
 242:Generated_Source\PSoC5/ENC_ISR.c **** * Function Name: ENC_ISR_GetVector
 243:Generated_Source\PSoC5/ENC_ISR.c **** ********************************************************************************
 244:Generated_Source\PSoC5/ENC_ISR.c **** *
 245:Generated_Source\PSoC5/ENC_ISR.c **** * Summary:
 246:Generated_Source\PSoC5/ENC_ISR.c **** *   Gets the "address" of the current ISR vector for the Interrupt.
 247:Generated_Source\PSoC5/ENC_ISR.c **** *
 248:Generated_Source\PSoC5/ENC_ISR.c **** * Parameters:
 249:Generated_Source\PSoC5/ENC_ISR.c **** *   None
 250:Generated_Source\PSoC5/ENC_ISR.c **** *
 251:Generated_Source\PSoC5/ENC_ISR.c **** * Return:
 252:Generated_Source\PSoC5/ENC_ISR.c **** *   Address of the ISR in the interrupt vector table.
 253:Generated_Source\PSoC5/ENC_ISR.c **** *
ARM GAS  C:\Users\Will\AppData\Local\Temp\cc0U1HKI.s 			page 8


 254:Generated_Source\PSoC5/ENC_ISR.c **** *******************************************************************************/
 255:Generated_Source\PSoC5/ENC_ISR.c **** cyisraddress ENC_ISR_GetVector(void)
 256:Generated_Source\PSoC5/ENC_ISR.c **** {
 147              		.loc 1 256 0
 148              		.cfi_startproc
 149              		@ args = 0, pretend = 0, frame = 0
 150              		@ frame_needed = 0, uses_anonymous_args = 0
 151              		@ link register save eliminated.
 257:Generated_Source\PSoC5/ENC_ISR.c ****     cyisraddress * ramVectorTable;
 258:Generated_Source\PSoC5/ENC_ISR.c **** 
 259:Generated_Source\PSoC5/ENC_ISR.c ****     ramVectorTable = (cyisraddress *) *CYINT_VECT_TABLE;
 152              		.loc 1 259 0
 153 0000 014B     		ldr	r3, .L12
 154 0002 1B68     		ldr	r3, [r3]
 155              	.LVL4:
 260:Generated_Source\PSoC5/ENC_ISR.c **** 
 261:Generated_Source\PSoC5/ENC_ISR.c ****     return ramVectorTable[CYINT_IRQ_BASE + (uint32)ENC_ISR__INTC_NUMBER];
 262:Generated_Source\PSoC5/ENC_ISR.c **** }
 156              		.loc 1 262 0
 157 0004 186D     		ldr	r0, [r3, #80]
 158 0006 7047     		bx	lr
 159              	.L13:
 160              		.align	2
 161              	.L12:
 162 0008 08ED00E0 		.word	-536810232
 163              		.cfi_endproc
 164              	.LFE5:
 165              		.size	ENC_ISR_GetVector, .-ENC_ISR_GetVector
 166              		.section	.text.ENC_ISR_SetPriority,"ax",%progbits
 167              		.align	2
 168              		.global	ENC_ISR_SetPriority
 169              		.thumb
 170              		.thumb_func
 171              		.type	ENC_ISR_SetPriority, %function
 172              	ENC_ISR_SetPriority:
 173              	.LFB6:
 263:Generated_Source\PSoC5/ENC_ISR.c **** 
 264:Generated_Source\PSoC5/ENC_ISR.c **** 
 265:Generated_Source\PSoC5/ENC_ISR.c **** /*******************************************************************************
 266:Generated_Source\PSoC5/ENC_ISR.c **** * Function Name: ENC_ISR_SetPriority
 267:Generated_Source\PSoC5/ENC_ISR.c **** ********************************************************************************
 268:Generated_Source\PSoC5/ENC_ISR.c **** *
 269:Generated_Source\PSoC5/ENC_ISR.c **** * Summary:
 270:Generated_Source\PSoC5/ENC_ISR.c **** *   Sets the Priority of the Interrupt. 
 271:Generated_Source\PSoC5/ENC_ISR.c **** *
 272:Generated_Source\PSoC5/ENC_ISR.c **** *   Note calling ENC_ISR_Start or ENC_ISR_StartEx will 
 273:Generated_Source\PSoC5/ENC_ISR.c **** *   override any effect this API would have had. This API should only be called
 274:Generated_Source\PSoC5/ENC_ISR.c **** *   after ENC_ISR_Start or ENC_ISR_StartEx has been called. 
 275:Generated_Source\PSoC5/ENC_ISR.c **** *   To set the initial priority for the component, use the Design-Wide Resources
 276:Generated_Source\PSoC5/ENC_ISR.c **** *   Interrupt Editor.
 277:Generated_Source\PSoC5/ENC_ISR.c **** *
 278:Generated_Source\PSoC5/ENC_ISR.c **** *   Note This API has no effect on Non-maskable interrupt NMI).
 279:Generated_Source\PSoC5/ENC_ISR.c **** *
 280:Generated_Source\PSoC5/ENC_ISR.c **** * Parameters:
 281:Generated_Source\PSoC5/ENC_ISR.c **** *   priority: Priority of the interrupt, 0 being the highest priority
 282:Generated_Source\PSoC5/ENC_ISR.c **** *             PSoC 3 and PSoC 5LP: Priority is from 0 to 7.
 283:Generated_Source\PSoC5/ENC_ISR.c **** *             PSoC 4: Priority is from 0 to 3.
ARM GAS  C:\Users\Will\AppData\Local\Temp\cc0U1HKI.s 			page 9


 284:Generated_Source\PSoC5/ENC_ISR.c **** *
 285:Generated_Source\PSoC5/ENC_ISR.c **** * Return:
 286:Generated_Source\PSoC5/ENC_ISR.c **** *   None
 287:Generated_Source\PSoC5/ENC_ISR.c **** *
 288:Generated_Source\PSoC5/ENC_ISR.c **** *******************************************************************************/
 289:Generated_Source\PSoC5/ENC_ISR.c **** void ENC_ISR_SetPriority(uint8 priority)
 290:Generated_Source\PSoC5/ENC_ISR.c **** {
 174              		.loc 1 290 0
 175              		.cfi_startproc
 176              		@ args = 0, pretend = 0, frame = 0
 177              		@ frame_needed = 0, uses_anonymous_args = 0
 178              		@ link register save eliminated.
 179              	.LVL5:
 291:Generated_Source\PSoC5/ENC_ISR.c ****     *ENC_ISR_INTC_PRIOR = priority << 5;
 180              		.loc 1 291 0
 181 0000 4001     		lsls	r0, r0, #5
 182              	.LVL6:
 183 0002 C0B2     		uxtb	r0, r0
 184 0004 014B     		ldr	r3, .L15
 185 0006 1870     		strb	r0, [r3]
 186 0008 7047     		bx	lr
 187              	.L16:
 188 000a 00BF     		.align	2
 189              	.L15:
 190 000c 04E400E0 		.word	-536812540
 191              		.cfi_endproc
 192              	.LFE6:
 193              		.size	ENC_ISR_SetPriority, .-ENC_ISR_SetPriority
 194              		.section	.text.ENC_ISR_GetPriority,"ax",%progbits
 195              		.align	2
 196              		.global	ENC_ISR_GetPriority
 197              		.thumb
 198              		.thumb_func
 199              		.type	ENC_ISR_GetPriority, %function
 200              	ENC_ISR_GetPriority:
 201              	.LFB7:
 292:Generated_Source\PSoC5/ENC_ISR.c **** }
 293:Generated_Source\PSoC5/ENC_ISR.c **** 
 294:Generated_Source\PSoC5/ENC_ISR.c **** 
 295:Generated_Source\PSoC5/ENC_ISR.c **** /*******************************************************************************
 296:Generated_Source\PSoC5/ENC_ISR.c **** * Function Name: ENC_ISR_GetPriority
 297:Generated_Source\PSoC5/ENC_ISR.c **** ********************************************************************************
 298:Generated_Source\PSoC5/ENC_ISR.c **** *
 299:Generated_Source\PSoC5/ENC_ISR.c **** * Summary:
 300:Generated_Source\PSoC5/ENC_ISR.c **** *   Gets the Priority of the Interrupt.
 301:Generated_Source\PSoC5/ENC_ISR.c **** *
 302:Generated_Source\PSoC5/ENC_ISR.c **** * Parameters:
 303:Generated_Source\PSoC5/ENC_ISR.c **** *   None
 304:Generated_Source\PSoC5/ENC_ISR.c **** *
 305:Generated_Source\PSoC5/ENC_ISR.c **** * Return:
 306:Generated_Source\PSoC5/ENC_ISR.c **** *   Priority of the interrupt, 0 being the highest priority
 307:Generated_Source\PSoC5/ENC_ISR.c **** *    PSoC 3 and PSoC 5LP: Priority is from 0 to 7.
 308:Generated_Source\PSoC5/ENC_ISR.c **** *    PSoC 4: Priority is from 0 to 3.
 309:Generated_Source\PSoC5/ENC_ISR.c **** *
 310:Generated_Source\PSoC5/ENC_ISR.c **** *******************************************************************************/
 311:Generated_Source\PSoC5/ENC_ISR.c **** uint8 ENC_ISR_GetPriority(void)
 312:Generated_Source\PSoC5/ENC_ISR.c **** {
ARM GAS  C:\Users\Will\AppData\Local\Temp\cc0U1HKI.s 			page 10


 202              		.loc 1 312 0
 203              		.cfi_startproc
 204              		@ args = 0, pretend = 0, frame = 0
 205              		@ frame_needed = 0, uses_anonymous_args = 0
 206              		@ link register save eliminated.
 313:Generated_Source\PSoC5/ENC_ISR.c ****     uint8 priority;
 314:Generated_Source\PSoC5/ENC_ISR.c **** 
 315:Generated_Source\PSoC5/ENC_ISR.c **** 
 316:Generated_Source\PSoC5/ENC_ISR.c ****     priority = *ENC_ISR_INTC_PRIOR >> 5;
 207              		.loc 1 316 0
 208 0000 014B     		ldr	r3, .L18
 209 0002 1878     		ldrb	r0, [r3]	@ zero_extendqisi2
 210              	.LVL7:
 317:Generated_Source\PSoC5/ENC_ISR.c **** 
 318:Generated_Source\PSoC5/ENC_ISR.c ****     return priority;
 319:Generated_Source\PSoC5/ENC_ISR.c **** }
 211              		.loc 1 319 0
 212 0004 4009     		lsrs	r0, r0, #5
 213              	.LVL8:
 214 0006 7047     		bx	lr
 215              	.L19:
 216              		.align	2
 217              	.L18:
 218 0008 04E400E0 		.word	-536812540
 219              		.cfi_endproc
 220              	.LFE7:
 221              		.size	ENC_ISR_GetPriority, .-ENC_ISR_GetPriority
 222              		.section	.text.ENC_ISR_Enable,"ax",%progbits
 223              		.align	2
 224              		.global	ENC_ISR_Enable
 225              		.thumb
 226              		.thumb_func
 227              		.type	ENC_ISR_Enable, %function
 228              	ENC_ISR_Enable:
 229              	.LFB8:
 320:Generated_Source\PSoC5/ENC_ISR.c **** 
 321:Generated_Source\PSoC5/ENC_ISR.c **** 
 322:Generated_Source\PSoC5/ENC_ISR.c **** /*******************************************************************************
 323:Generated_Source\PSoC5/ENC_ISR.c **** * Function Name: ENC_ISR_Enable
 324:Generated_Source\PSoC5/ENC_ISR.c **** ********************************************************************************
 325:Generated_Source\PSoC5/ENC_ISR.c **** *
 326:Generated_Source\PSoC5/ENC_ISR.c **** * Summary:
 327:Generated_Source\PSoC5/ENC_ISR.c **** *   Enables the interrupt to the interrupt controller. Do not call this function
 328:Generated_Source\PSoC5/ENC_ISR.c **** *   unless ISR_Start() has been called or the functionality of the ISR_Start() 
 329:Generated_Source\PSoC5/ENC_ISR.c **** *   function, which sets the vector and the priority, has been called.
 330:Generated_Source\PSoC5/ENC_ISR.c **** *
 331:Generated_Source\PSoC5/ENC_ISR.c **** * Parameters:
 332:Generated_Source\PSoC5/ENC_ISR.c **** *   None
 333:Generated_Source\PSoC5/ENC_ISR.c **** *
 334:Generated_Source\PSoC5/ENC_ISR.c **** * Return:
 335:Generated_Source\PSoC5/ENC_ISR.c **** *   None
 336:Generated_Source\PSoC5/ENC_ISR.c **** *
 337:Generated_Source\PSoC5/ENC_ISR.c **** *******************************************************************************/
 338:Generated_Source\PSoC5/ENC_ISR.c **** void ENC_ISR_Enable(void)
 339:Generated_Source\PSoC5/ENC_ISR.c **** {
 230              		.loc 1 339 0
 231              		.cfi_startproc
ARM GAS  C:\Users\Will\AppData\Local\Temp\cc0U1HKI.s 			page 11


 232              		@ args = 0, pretend = 0, frame = 0
 233              		@ frame_needed = 0, uses_anonymous_args = 0
 234              		@ link register save eliminated.
 340:Generated_Source\PSoC5/ENC_ISR.c ****     /* Enable the general interrupt. */
 341:Generated_Source\PSoC5/ENC_ISR.c ****     *ENC_ISR_INTC_SET_EN = ENC_ISR__INTC_MASK;
 235              		.loc 1 341 0
 236 0000 1022     		movs	r2, #16
 237 0002 014B     		ldr	r3, .L21
 238 0004 1A60     		str	r2, [r3]
 239 0006 7047     		bx	lr
 240              	.L22:
 241              		.align	2
 242              	.L21:
 243 0008 00E100E0 		.word	-536813312
 244              		.cfi_endproc
 245              	.LFE8:
 246              		.size	ENC_ISR_Enable, .-ENC_ISR_Enable
 247              		.section	.text.ENC_ISR_GetState,"ax",%progbits
 248              		.align	2
 249              		.global	ENC_ISR_GetState
 250              		.thumb
 251              		.thumb_func
 252              		.type	ENC_ISR_GetState, %function
 253              	ENC_ISR_GetState:
 254              	.LFB9:
 342:Generated_Source\PSoC5/ENC_ISR.c **** }
 343:Generated_Source\PSoC5/ENC_ISR.c **** 
 344:Generated_Source\PSoC5/ENC_ISR.c **** 
 345:Generated_Source\PSoC5/ENC_ISR.c **** /*******************************************************************************
 346:Generated_Source\PSoC5/ENC_ISR.c **** * Function Name: ENC_ISR_GetState
 347:Generated_Source\PSoC5/ENC_ISR.c **** ********************************************************************************
 348:Generated_Source\PSoC5/ENC_ISR.c **** *
 349:Generated_Source\PSoC5/ENC_ISR.c **** * Summary:
 350:Generated_Source\PSoC5/ENC_ISR.c **** *   Gets the state (enabled, disabled) of the Interrupt.
 351:Generated_Source\PSoC5/ENC_ISR.c **** *
 352:Generated_Source\PSoC5/ENC_ISR.c **** * Parameters:
 353:Generated_Source\PSoC5/ENC_ISR.c **** *   None
 354:Generated_Source\PSoC5/ENC_ISR.c **** *
 355:Generated_Source\PSoC5/ENC_ISR.c **** * Return:
 356:Generated_Source\PSoC5/ENC_ISR.c **** *   1 if enabled, 0 if disabled.
 357:Generated_Source\PSoC5/ENC_ISR.c **** *
 358:Generated_Source\PSoC5/ENC_ISR.c **** *******************************************************************************/
 359:Generated_Source\PSoC5/ENC_ISR.c **** uint8 ENC_ISR_GetState(void)
 360:Generated_Source\PSoC5/ENC_ISR.c **** {
 255              		.loc 1 360 0
 256              		.cfi_startproc
 257              		@ args = 0, pretend = 0, frame = 0
 258              		@ frame_needed = 0, uses_anonymous_args = 0
 259              		@ link register save eliminated.
 361:Generated_Source\PSoC5/ENC_ISR.c ****     /* Get the state of the general interrupt. */
 362:Generated_Source\PSoC5/ENC_ISR.c ****     return ((*ENC_ISR_INTC_SET_EN & (uint32)ENC_ISR__INTC_MASK) != 0u) ? 1u:0u;
 260              		.loc 1 362 0
 261 0000 044B     		ldr	r3, .L26
 262 0002 1B68     		ldr	r3, [r3]
 263 0004 13F0100F 		tst	r3, #16
 264 0008 01D0     		beq	.L25
 265 000a 0120     		movs	r0, #1
ARM GAS  C:\Users\Will\AppData\Local\Temp\cc0U1HKI.s 			page 12


 266 000c 7047     		bx	lr
 267              	.L25:
 268 000e 0020     		movs	r0, #0
 363:Generated_Source\PSoC5/ENC_ISR.c **** }
 269              		.loc 1 363 0
 270 0010 7047     		bx	lr
 271              	.L27:
 272 0012 00BF     		.align	2
 273              	.L26:
 274 0014 00E100E0 		.word	-536813312
 275              		.cfi_endproc
 276              	.LFE9:
 277              		.size	ENC_ISR_GetState, .-ENC_ISR_GetState
 278              		.section	.text.ENC_ISR_Disable,"ax",%progbits
 279              		.align	2
 280              		.global	ENC_ISR_Disable
 281              		.thumb
 282              		.thumb_func
 283              		.type	ENC_ISR_Disable, %function
 284              	ENC_ISR_Disable:
 285              	.LFB10:
 364:Generated_Source\PSoC5/ENC_ISR.c **** 
 365:Generated_Source\PSoC5/ENC_ISR.c **** 
 366:Generated_Source\PSoC5/ENC_ISR.c **** /*******************************************************************************
 367:Generated_Source\PSoC5/ENC_ISR.c **** * Function Name: ENC_ISR_Disable
 368:Generated_Source\PSoC5/ENC_ISR.c **** ********************************************************************************
 369:Generated_Source\PSoC5/ENC_ISR.c **** *
 370:Generated_Source\PSoC5/ENC_ISR.c **** * Summary:
 371:Generated_Source\PSoC5/ENC_ISR.c **** *   Disables the Interrupt in the interrupt controller.
 372:Generated_Source\PSoC5/ENC_ISR.c **** *
 373:Generated_Source\PSoC5/ENC_ISR.c **** * Parameters:
 374:Generated_Source\PSoC5/ENC_ISR.c **** *   None
 375:Generated_Source\PSoC5/ENC_ISR.c **** *
 376:Generated_Source\PSoC5/ENC_ISR.c **** * Return:
 377:Generated_Source\PSoC5/ENC_ISR.c **** *   None
 378:Generated_Source\PSoC5/ENC_ISR.c **** *
 379:Generated_Source\PSoC5/ENC_ISR.c **** *******************************************************************************/
 380:Generated_Source\PSoC5/ENC_ISR.c **** void ENC_ISR_Disable(void)
 381:Generated_Source\PSoC5/ENC_ISR.c **** {
 286              		.loc 1 381 0
 287              		.cfi_startproc
 288              		@ args = 0, pretend = 0, frame = 0
 289              		@ frame_needed = 0, uses_anonymous_args = 0
 290              		@ link register save eliminated.
 382:Generated_Source\PSoC5/ENC_ISR.c ****     /* Disable the general interrupt. */
 383:Generated_Source\PSoC5/ENC_ISR.c ****     *ENC_ISR_INTC_CLR_EN = ENC_ISR__INTC_MASK;
 291              		.loc 1 383 0
 292 0000 1022     		movs	r2, #16
 293 0002 014B     		ldr	r3, .L29
 294 0004 1A60     		str	r2, [r3]
 295 0006 7047     		bx	lr
 296              	.L30:
 297              		.align	2
 298              	.L29:
 299 0008 80E100E0 		.word	-536813184
 300              		.cfi_endproc
 301              	.LFE10:
ARM GAS  C:\Users\Will\AppData\Local\Temp\cc0U1HKI.s 			page 13


 302              		.size	ENC_ISR_Disable, .-ENC_ISR_Disable
 303              		.section	.text.ENC_ISR_Start,"ax",%progbits
 304              		.align	2
 305              		.global	ENC_ISR_Start
 306              		.thumb
 307              		.thumb_func
 308              		.type	ENC_ISR_Start, %function
 309              	ENC_ISR_Start:
 310              	.LFB0:
  67:Generated_Source\PSoC5/ENC_ISR.c ****     /* For all we know the interrupt is active. */
 311              		.loc 1 67 0
 312              		.cfi_startproc
 313              		@ args = 0, pretend = 0, frame = 0
 314              		@ frame_needed = 0, uses_anonymous_args = 0
 315 0000 08B5     		push	{r3, lr}
 316              		.cfi_def_cfa_offset 8
 317              		.cfi_offset 3, -8
 318              		.cfi_offset 14, -4
  69:Generated_Source\PSoC5/ENC_ISR.c **** 
 319              		.loc 1 69 0
 320 0002 FFF7FEFF 		bl	ENC_ISR_Disable
 321              	.LVL9:
  72:Generated_Source\PSoC5/ENC_ISR.c **** 
 322              		.loc 1 72 0
 323 0006 0448     		ldr	r0, .L33
 324 0008 FFF7FEFF 		bl	ENC_ISR_SetVector
 325              	.LVL10:
  75:Generated_Source\PSoC5/ENC_ISR.c **** 
 326              		.loc 1 75 0
 327 000c 0720     		movs	r0, #7
 328 000e FFF7FEFF 		bl	ENC_ISR_SetPriority
 329              	.LVL11:
  78:Generated_Source\PSoC5/ENC_ISR.c **** }
 330              		.loc 1 78 0
 331 0012 FFF7FEFF 		bl	ENC_ISR_Enable
 332              	.LVL12:
 333 0016 08BD     		pop	{r3, pc}
 334              	.L34:
 335              		.align	2
 336              	.L33:
 337 0018 00000000 		.word	ENC_ISR_Interrupt
 338              		.cfi_endproc
 339              	.LFE0:
 340              		.size	ENC_ISR_Start, .-ENC_ISR_Start
 341              		.section	.text.ENC_ISR_StartEx,"ax",%progbits
 342              		.align	2
 343              		.global	ENC_ISR_StartEx
 344              		.thumb
 345              		.thumb_func
 346              		.type	ENC_ISR_StartEx, %function
 347              	ENC_ISR_StartEx:
 348              	.LFB1:
 110:Generated_Source\PSoC5/ENC_ISR.c ****     /* For all we know the interrupt is active. */
 349              		.loc 1 110 0
 350              		.cfi_startproc
 351              		@ args = 0, pretend = 0, frame = 0
 352              		@ frame_needed = 0, uses_anonymous_args = 0
ARM GAS  C:\Users\Will\AppData\Local\Temp\cc0U1HKI.s 			page 14


 353              	.LVL13:
 354 0000 10B5     		push	{r4, lr}
 355              		.cfi_def_cfa_offset 8
 356              		.cfi_offset 4, -8
 357              		.cfi_offset 14, -4
 358 0002 0446     		mov	r4, r0
 112:Generated_Source\PSoC5/ENC_ISR.c **** 
 359              		.loc 1 112 0
 360 0004 FFF7FEFF 		bl	ENC_ISR_Disable
 361              	.LVL14:
 115:Generated_Source\PSoC5/ENC_ISR.c **** 
 362              		.loc 1 115 0
 363 0008 2046     		mov	r0, r4
 364 000a FFF7FEFF 		bl	ENC_ISR_SetVector
 365              	.LVL15:
 118:Generated_Source\PSoC5/ENC_ISR.c **** 
 366              		.loc 1 118 0
 367 000e 0720     		movs	r0, #7
 368 0010 FFF7FEFF 		bl	ENC_ISR_SetPriority
 369              	.LVL16:
 121:Generated_Source\PSoC5/ENC_ISR.c **** }
 370              		.loc 1 121 0
 371 0014 FFF7FEFF 		bl	ENC_ISR_Enable
 372              	.LVL17:
 373 0018 10BD     		pop	{r4, pc}
 374              		.cfi_endproc
 375              	.LFE1:
 376              		.size	ENC_ISR_StartEx, .-ENC_ISR_StartEx
 377 001a 00BF     		.section	.text.ENC_ISR_Stop,"ax",%progbits
 378              		.align	2
 379              		.global	ENC_ISR_Stop
 380              		.thumb
 381              		.thumb_func
 382              		.type	ENC_ISR_Stop, %function
 383              	ENC_ISR_Stop:
 384              	.LFB2:
 140:Generated_Source\PSoC5/ENC_ISR.c ****     /* Disable this interrupt. */
 385              		.loc 1 140 0
 386              		.cfi_startproc
 387              		@ args = 0, pretend = 0, frame = 0
 388              		@ frame_needed = 0, uses_anonymous_args = 0
 389 0000 08B5     		push	{r3, lr}
 390              		.cfi_def_cfa_offset 8
 391              		.cfi_offset 3, -8
 392              		.cfi_offset 14, -4
 142:Generated_Source\PSoC5/ENC_ISR.c **** 
 393              		.loc 1 142 0
 394 0002 FFF7FEFF 		bl	ENC_ISR_Disable
 395              	.LVL18:
 145:Generated_Source\PSoC5/ENC_ISR.c **** }
 396              		.loc 1 145 0
 397 0006 0248     		ldr	r0, .L39
 398 0008 FFF7FEFF 		bl	ENC_ISR_SetVector
 399              	.LVL19:
 400 000c 08BD     		pop	{r3, pc}
 401              	.L40:
 402 000e 00BF     		.align	2
ARM GAS  C:\Users\Will\AppData\Local\Temp\cc0U1HKI.s 			page 15


 403              	.L39:
 404 0010 00000000 		.word	IntDefaultHandler
 405              		.cfi_endproc
 406              	.LFE2:
 407              		.size	ENC_ISR_Stop, .-ENC_ISR_Stop
 408              		.section	.text.ENC_ISR_SetPending,"ax",%progbits
 409              		.align	2
 410              		.global	ENC_ISR_SetPending
 411              		.thumb
 412              		.thumb_func
 413              		.type	ENC_ISR_SetPending, %function
 414              	ENC_ISR_SetPending:
 415              	.LFB11:
 384:Generated_Source\PSoC5/ENC_ISR.c **** }
 385:Generated_Source\PSoC5/ENC_ISR.c **** 
 386:Generated_Source\PSoC5/ENC_ISR.c **** 
 387:Generated_Source\PSoC5/ENC_ISR.c **** /*******************************************************************************
 388:Generated_Source\PSoC5/ENC_ISR.c **** * Function Name: ENC_ISR_SetPending
 389:Generated_Source\PSoC5/ENC_ISR.c **** ********************************************************************************
 390:Generated_Source\PSoC5/ENC_ISR.c **** *
 391:Generated_Source\PSoC5/ENC_ISR.c **** * Summary:
 392:Generated_Source\PSoC5/ENC_ISR.c **** *   Causes the Interrupt to enter the pending state, a software method of
 393:Generated_Source\PSoC5/ENC_ISR.c **** *   generating the interrupt.
 394:Generated_Source\PSoC5/ENC_ISR.c **** *
 395:Generated_Source\PSoC5/ENC_ISR.c **** * Parameters:
 396:Generated_Source\PSoC5/ENC_ISR.c **** *   None
 397:Generated_Source\PSoC5/ENC_ISR.c **** *
 398:Generated_Source\PSoC5/ENC_ISR.c **** * Return:
 399:Generated_Source\PSoC5/ENC_ISR.c **** *   None
 400:Generated_Source\PSoC5/ENC_ISR.c **** *
 401:Generated_Source\PSoC5/ENC_ISR.c **** * Side Effects:
 402:Generated_Source\PSoC5/ENC_ISR.c **** *   If interrupts are enabled and the interrupt is set up properly, the ISR is
 403:Generated_Source\PSoC5/ENC_ISR.c **** *   entered (depending on the priority of this interrupt and other pending 
 404:Generated_Source\PSoC5/ENC_ISR.c **** *   interrupts).
 405:Generated_Source\PSoC5/ENC_ISR.c **** *
 406:Generated_Source\PSoC5/ENC_ISR.c **** *******************************************************************************/
 407:Generated_Source\PSoC5/ENC_ISR.c **** void ENC_ISR_SetPending(void)
 408:Generated_Source\PSoC5/ENC_ISR.c **** {
 416              		.loc 1 408 0
 417              		.cfi_startproc
 418              		@ args = 0, pretend = 0, frame = 0
 419              		@ frame_needed = 0, uses_anonymous_args = 0
 420              		@ link register save eliminated.
 409:Generated_Source\PSoC5/ENC_ISR.c ****     *ENC_ISR_INTC_SET_PD = ENC_ISR__INTC_MASK;
 421              		.loc 1 409 0
 422 0000 1022     		movs	r2, #16
 423 0002 014B     		ldr	r3, .L42
 424 0004 1A60     		str	r2, [r3]
 425 0006 7047     		bx	lr
 426              	.L43:
 427              		.align	2
 428              	.L42:
 429 0008 00E200E0 		.word	-536813056
 430              		.cfi_endproc
 431              	.LFE11:
 432              		.size	ENC_ISR_SetPending, .-ENC_ISR_SetPending
 433              		.section	.text.ENC_ISR_ClearPending,"ax",%progbits
ARM GAS  C:\Users\Will\AppData\Local\Temp\cc0U1HKI.s 			page 16


 434              		.align	2
 435              		.global	ENC_ISR_ClearPending
 436              		.thumb
 437              		.thumb_func
 438              		.type	ENC_ISR_ClearPending, %function
 439              	ENC_ISR_ClearPending:
 440              	.LFB12:
 410:Generated_Source\PSoC5/ENC_ISR.c **** }
 411:Generated_Source\PSoC5/ENC_ISR.c **** 
 412:Generated_Source\PSoC5/ENC_ISR.c **** 
 413:Generated_Source\PSoC5/ENC_ISR.c **** /*******************************************************************************
 414:Generated_Source\PSoC5/ENC_ISR.c **** * Function Name: ENC_ISR_ClearPending
 415:Generated_Source\PSoC5/ENC_ISR.c **** ********************************************************************************
 416:Generated_Source\PSoC5/ENC_ISR.c **** *
 417:Generated_Source\PSoC5/ENC_ISR.c **** * Summary:
 418:Generated_Source\PSoC5/ENC_ISR.c **** *   Clears a pending interrupt in the interrupt controller.
 419:Generated_Source\PSoC5/ENC_ISR.c **** *
 420:Generated_Source\PSoC5/ENC_ISR.c **** *   Note Some interrupt sources are clear-on-read and require the block 
 421:Generated_Source\PSoC5/ENC_ISR.c **** *   interrupt/status register to be read/cleared with the appropriate block API 
 422:Generated_Source\PSoC5/ENC_ISR.c **** *   (GPIO, UART, and so on). Otherwise the ISR will continue to remain in 
 423:Generated_Source\PSoC5/ENC_ISR.c **** *   pending state even though the interrupt itself is cleared using this API.
 424:Generated_Source\PSoC5/ENC_ISR.c **** *
 425:Generated_Source\PSoC5/ENC_ISR.c **** * Parameters:
 426:Generated_Source\PSoC5/ENC_ISR.c **** *   None
 427:Generated_Source\PSoC5/ENC_ISR.c **** *
 428:Generated_Source\PSoC5/ENC_ISR.c **** * Return:
 429:Generated_Source\PSoC5/ENC_ISR.c **** *   None
 430:Generated_Source\PSoC5/ENC_ISR.c **** *
 431:Generated_Source\PSoC5/ENC_ISR.c **** *******************************************************************************/
 432:Generated_Source\PSoC5/ENC_ISR.c **** void ENC_ISR_ClearPending(void)
 433:Generated_Source\PSoC5/ENC_ISR.c **** {
 441              		.loc 1 433 0
 442              		.cfi_startproc
 443              		@ args = 0, pretend = 0, frame = 0
 444              		@ frame_needed = 0, uses_anonymous_args = 0
 445              		@ link register save eliminated.
 434:Generated_Source\PSoC5/ENC_ISR.c ****     *ENC_ISR_INTC_CLR_PD = ENC_ISR__INTC_MASK;
 446              		.loc 1 434 0
 447 0000 1022     		movs	r2, #16
 448 0002 014B     		ldr	r3, .L45
 449 0004 1A60     		str	r2, [r3]
 450 0006 7047     		bx	lr
 451              	.L46:
 452              		.align	2
 453              	.L45:
 454 0008 80E200E0 		.word	-536812928
 455              		.cfi_endproc
 456              	.LFE12:
 457              		.size	ENC_ISR_ClearPending, .-ENC_ISR_ClearPending
 458              		.global	lastChA
 459              		.global	chA
 460              		.global	trigger
 461              		.bss
 462              		.set	.LANCHOR0,. + 0
 463              		.type	chA, %object
 464              		.size	chA, 1
 465              	chA:
ARM GAS  C:\Users\Will\AppData\Local\Temp\cc0U1HKI.s 			page 17


 466 0000 00       		.space	1
 467              		.type	lastChA, %object
 468              		.size	lastChA, 1
 469              	lastChA:
 470 0001 00       		.space	1
 471              		.type	trigger, %object
 472              		.size	trigger, 1
 473              	trigger:
 474 0002 00       		.space	1
 475              		.text
 476              	.Letext0:
 477              		.file 2 "Generated_Source\\PSoC5/cytypes.h"
 478              		.file 3 "Generated_Source\\PSoC5/CyLib.h"
 479              		.file 4 "Generated_Source\\PSoC5\\ENC.h"