ARM GAS  C:\Users\Will\AppData\Local\Temp\cctsoTrH.s 			page 1


   1              		.syntax unified
   2              		.cpu cortex-m3
   3              		.fpu softvfp
   4              		.eabi_attribute 20, 1
   5              		.eabi_attribute 21, 1
   6              		.eabi_attribute 23, 3
   7              		.eabi_attribute 24, 1
   8              		.eabi_attribute 25, 1
   9              		.eabi_attribute 26, 1
  10              		.eabi_attribute 30, 1
  11              		.eabi_attribute 34, 1
  12              		.eabi_attribute 18, 4
  13              		.thumb
  14              		.syntax unified
  15              		.file	"REFRESH_ISR.c"
  16              		.text
  17              	.Ltext0:
  18              		.cfi_sections	.debug_frame
  19              		.section	.text.REFRESH_ISR_Interrupt,"ax",%progbits
  20              		.align	2
  21              		.global	REFRESH_ISR_Interrupt
  22              		.thumb
  23              		.thumb_func
  24              		.type	REFRESH_ISR_Interrupt, %function
  25              	REFRESH_ISR_Interrupt:
  26              	.LFB3:
  27              		.file 1 "Generated_Source\\PSoC5\\REFRESH_ISR.c"
   1:Generated_Source\PSoC5/REFRESH_ISR.c **** /*******************************************************************************
   2:Generated_Source\PSoC5/REFRESH_ISR.c **** * File Name: REFRESH_ISR.c  
   3:Generated_Source\PSoC5/REFRESH_ISR.c **** * Version 1.70
   4:Generated_Source\PSoC5/REFRESH_ISR.c **** *
   5:Generated_Source\PSoC5/REFRESH_ISR.c **** *  Description:
   6:Generated_Source\PSoC5/REFRESH_ISR.c **** *   API for controlling the state of an interrupt.
   7:Generated_Source\PSoC5/REFRESH_ISR.c **** *
   8:Generated_Source\PSoC5/REFRESH_ISR.c **** *
   9:Generated_Source\PSoC5/REFRESH_ISR.c **** *  Note:
  10:Generated_Source\PSoC5/REFRESH_ISR.c **** *
  11:Generated_Source\PSoC5/REFRESH_ISR.c **** ********************************************************************************
  12:Generated_Source\PSoC5/REFRESH_ISR.c **** * Copyright 2008-2015, Cypress Semiconductor Corporation.  All rights reserved.
  13:Generated_Source\PSoC5/REFRESH_ISR.c **** * You may use this file only in accordance with the license, terms, conditions, 
  14:Generated_Source\PSoC5/REFRESH_ISR.c **** * disclaimers, and limitations in the end user license agreement accompanying 
  15:Generated_Source\PSoC5/REFRESH_ISR.c **** * the software package with which this file was provided.
  16:Generated_Source\PSoC5/REFRESH_ISR.c **** *******************************************************************************/
  17:Generated_Source\PSoC5/REFRESH_ISR.c **** 
  18:Generated_Source\PSoC5/REFRESH_ISR.c **** 
  19:Generated_Source\PSoC5/REFRESH_ISR.c **** #include <cydevice_trm.h>
  20:Generated_Source\PSoC5/REFRESH_ISR.c **** #include <CyLib.h>
  21:Generated_Source\PSoC5/REFRESH_ISR.c **** #include <REFRESH_ISR.h>
  22:Generated_Source\PSoC5/REFRESH_ISR.c **** #include "cyapicallbacks.h"
  23:Generated_Source\PSoC5/REFRESH_ISR.c **** 
  24:Generated_Source\PSoC5/REFRESH_ISR.c **** #if !defined(REFRESH_ISR__REMOVED) /* Check for removal by optimization */
  25:Generated_Source\PSoC5/REFRESH_ISR.c **** 
  26:Generated_Source\PSoC5/REFRESH_ISR.c **** /*******************************************************************************
  27:Generated_Source\PSoC5/REFRESH_ISR.c **** *  Place your includes, defines and code here 
  28:Generated_Source\PSoC5/REFRESH_ISR.c **** ********************************************************************************/
  29:Generated_Source\PSoC5/REFRESH_ISR.c **** /* `#START REFRESH_ISR_intc` */
  30:Generated_Source\PSoC5/REFRESH_ISR.c **** #include "TIMER.h"
ARM GAS  C:\Users\Will\AppData\Local\Temp\cctsoTrH.s 			page 2


  31:Generated_Source\PSoC5/REFRESH_ISR.c **** volatile uint8 timer_isr_flag;
  32:Generated_Source\PSoC5/REFRESH_ISR.c **** /* `#END` */
  33:Generated_Source\PSoC5/REFRESH_ISR.c **** 
  34:Generated_Source\PSoC5/REFRESH_ISR.c **** #ifndef CYINT_IRQ_BASE
  35:Generated_Source\PSoC5/REFRESH_ISR.c **** #define CYINT_IRQ_BASE      16
  36:Generated_Source\PSoC5/REFRESH_ISR.c **** #endif /* CYINT_IRQ_BASE */
  37:Generated_Source\PSoC5/REFRESH_ISR.c **** #ifndef CYINT_VECT_TABLE
  38:Generated_Source\PSoC5/REFRESH_ISR.c **** #define CYINT_VECT_TABLE    ((cyisraddress **) CYREG_NVIC_VECT_OFFSET)
  39:Generated_Source\PSoC5/REFRESH_ISR.c **** #endif /* CYINT_VECT_TABLE */
  40:Generated_Source\PSoC5/REFRESH_ISR.c **** 
  41:Generated_Source\PSoC5/REFRESH_ISR.c **** /* Declared in startup, used to set unused interrupts to. */
  42:Generated_Source\PSoC5/REFRESH_ISR.c **** CY_ISR_PROTO(IntDefaultHandler);
  43:Generated_Source\PSoC5/REFRESH_ISR.c **** 
  44:Generated_Source\PSoC5/REFRESH_ISR.c **** 
  45:Generated_Source\PSoC5/REFRESH_ISR.c **** /*******************************************************************************
  46:Generated_Source\PSoC5/REFRESH_ISR.c **** * Function Name: REFRESH_ISR_Start
  47:Generated_Source\PSoC5/REFRESH_ISR.c **** ********************************************************************************
  48:Generated_Source\PSoC5/REFRESH_ISR.c **** *
  49:Generated_Source\PSoC5/REFRESH_ISR.c **** * Summary:
  50:Generated_Source\PSoC5/REFRESH_ISR.c **** *  Set up the interrupt and enable it. This function disables the interrupt, 
  51:Generated_Source\PSoC5/REFRESH_ISR.c **** *  sets the default interrupt vector, sets the priority from the value in the
  52:Generated_Source\PSoC5/REFRESH_ISR.c **** *  Design Wide Resources Interrupt Editor, then enables the interrupt to the 
  53:Generated_Source\PSoC5/REFRESH_ISR.c **** *  interrupt controller.
  54:Generated_Source\PSoC5/REFRESH_ISR.c **** *
  55:Generated_Source\PSoC5/REFRESH_ISR.c **** * Parameters:  
  56:Generated_Source\PSoC5/REFRESH_ISR.c **** *   None
  57:Generated_Source\PSoC5/REFRESH_ISR.c **** *
  58:Generated_Source\PSoC5/REFRESH_ISR.c **** * Return:
  59:Generated_Source\PSoC5/REFRESH_ISR.c **** *   None
  60:Generated_Source\PSoC5/REFRESH_ISR.c **** *
  61:Generated_Source\PSoC5/REFRESH_ISR.c **** *******************************************************************************/
  62:Generated_Source\PSoC5/REFRESH_ISR.c **** void REFRESH_ISR_Start(void)
  63:Generated_Source\PSoC5/REFRESH_ISR.c **** {
  64:Generated_Source\PSoC5/REFRESH_ISR.c ****     /* For all we know the interrupt is active. */
  65:Generated_Source\PSoC5/REFRESH_ISR.c ****     REFRESH_ISR_Disable();
  66:Generated_Source\PSoC5/REFRESH_ISR.c **** 
  67:Generated_Source\PSoC5/REFRESH_ISR.c ****     /* Set the ISR to point to the REFRESH_ISR Interrupt. */
  68:Generated_Source\PSoC5/REFRESH_ISR.c ****     REFRESH_ISR_SetVector(&REFRESH_ISR_Interrupt);
  69:Generated_Source\PSoC5/REFRESH_ISR.c **** 
  70:Generated_Source\PSoC5/REFRESH_ISR.c ****     /* Set the priority. */
  71:Generated_Source\PSoC5/REFRESH_ISR.c ****     REFRESH_ISR_SetPriority((uint8)REFRESH_ISR_INTC_PRIOR_NUMBER);
  72:Generated_Source\PSoC5/REFRESH_ISR.c **** 
  73:Generated_Source\PSoC5/REFRESH_ISR.c ****     /* Enable it. */
  74:Generated_Source\PSoC5/REFRESH_ISR.c ****     REFRESH_ISR_Enable();
  75:Generated_Source\PSoC5/REFRESH_ISR.c **** }
  76:Generated_Source\PSoC5/REFRESH_ISR.c **** 
  77:Generated_Source\PSoC5/REFRESH_ISR.c **** 
  78:Generated_Source\PSoC5/REFRESH_ISR.c **** /*******************************************************************************
  79:Generated_Source\PSoC5/REFRESH_ISR.c **** * Function Name: REFRESH_ISR_StartEx
  80:Generated_Source\PSoC5/REFRESH_ISR.c **** ********************************************************************************
  81:Generated_Source\PSoC5/REFRESH_ISR.c **** *
  82:Generated_Source\PSoC5/REFRESH_ISR.c **** * Summary:
  83:Generated_Source\PSoC5/REFRESH_ISR.c **** *  Sets up the interrupt and enables it. This function disables the interrupt,
  84:Generated_Source\PSoC5/REFRESH_ISR.c **** *  sets the interrupt vector based on the address passed in, sets the priority 
  85:Generated_Source\PSoC5/REFRESH_ISR.c **** *  from the value in the Design Wide Resources Interrupt Editor, then enables 
  86:Generated_Source\PSoC5/REFRESH_ISR.c **** *  the interrupt to the interrupt controller.
  87:Generated_Source\PSoC5/REFRESH_ISR.c **** *  
ARM GAS  C:\Users\Will\AppData\Local\Temp\cctsoTrH.s 			page 3


  88:Generated_Source\PSoC5/REFRESH_ISR.c **** *  When defining ISR functions, the CY_ISR and CY_ISR_PROTO macros should be 
  89:Generated_Source\PSoC5/REFRESH_ISR.c **** *  used to provide consistent definition across compilers:
  90:Generated_Source\PSoC5/REFRESH_ISR.c **** *  
  91:Generated_Source\PSoC5/REFRESH_ISR.c **** *  Function definition example:
  92:Generated_Source\PSoC5/REFRESH_ISR.c **** *   CY_ISR(MyISR)
  93:Generated_Source\PSoC5/REFRESH_ISR.c **** *   {
  94:Generated_Source\PSoC5/REFRESH_ISR.c **** *   }
  95:Generated_Source\PSoC5/REFRESH_ISR.c **** *   Function prototype example:
  96:Generated_Source\PSoC5/REFRESH_ISR.c **** *   CY_ISR_PROTO(MyISR);
  97:Generated_Source\PSoC5/REFRESH_ISR.c **** *
  98:Generated_Source\PSoC5/REFRESH_ISR.c **** * Parameters:  
  99:Generated_Source\PSoC5/REFRESH_ISR.c **** *   address: Address of the ISR to set in the interrupt vector table.
 100:Generated_Source\PSoC5/REFRESH_ISR.c **** *
 101:Generated_Source\PSoC5/REFRESH_ISR.c **** * Return:
 102:Generated_Source\PSoC5/REFRESH_ISR.c **** *   None
 103:Generated_Source\PSoC5/REFRESH_ISR.c **** *
 104:Generated_Source\PSoC5/REFRESH_ISR.c **** *******************************************************************************/
 105:Generated_Source\PSoC5/REFRESH_ISR.c **** void REFRESH_ISR_StartEx(cyisraddress address)
 106:Generated_Source\PSoC5/REFRESH_ISR.c **** {
 107:Generated_Source\PSoC5/REFRESH_ISR.c ****     /* For all we know the interrupt is active. */
 108:Generated_Source\PSoC5/REFRESH_ISR.c ****     REFRESH_ISR_Disable();
 109:Generated_Source\PSoC5/REFRESH_ISR.c **** 
 110:Generated_Source\PSoC5/REFRESH_ISR.c ****     /* Set the ISR to point to the REFRESH_ISR Interrupt. */
 111:Generated_Source\PSoC5/REFRESH_ISR.c ****     REFRESH_ISR_SetVector(address);
 112:Generated_Source\PSoC5/REFRESH_ISR.c **** 
 113:Generated_Source\PSoC5/REFRESH_ISR.c ****     /* Set the priority. */
 114:Generated_Source\PSoC5/REFRESH_ISR.c ****     REFRESH_ISR_SetPriority((uint8)REFRESH_ISR_INTC_PRIOR_NUMBER);
 115:Generated_Source\PSoC5/REFRESH_ISR.c **** 
 116:Generated_Source\PSoC5/REFRESH_ISR.c ****     /* Enable it. */
 117:Generated_Source\PSoC5/REFRESH_ISR.c ****     REFRESH_ISR_Enable();
 118:Generated_Source\PSoC5/REFRESH_ISR.c **** }
 119:Generated_Source\PSoC5/REFRESH_ISR.c **** 
 120:Generated_Source\PSoC5/REFRESH_ISR.c **** 
 121:Generated_Source\PSoC5/REFRESH_ISR.c **** /*******************************************************************************
 122:Generated_Source\PSoC5/REFRESH_ISR.c **** * Function Name: REFRESH_ISR_Stop
 123:Generated_Source\PSoC5/REFRESH_ISR.c **** ********************************************************************************
 124:Generated_Source\PSoC5/REFRESH_ISR.c **** *
 125:Generated_Source\PSoC5/REFRESH_ISR.c **** * Summary:
 126:Generated_Source\PSoC5/REFRESH_ISR.c **** *   Disables and removes the interrupt.
 127:Generated_Source\PSoC5/REFRESH_ISR.c **** *
 128:Generated_Source\PSoC5/REFRESH_ISR.c **** * Parameters:  
 129:Generated_Source\PSoC5/REFRESH_ISR.c **** *   None
 130:Generated_Source\PSoC5/REFRESH_ISR.c **** *
 131:Generated_Source\PSoC5/REFRESH_ISR.c **** * Return:
 132:Generated_Source\PSoC5/REFRESH_ISR.c **** *   None
 133:Generated_Source\PSoC5/REFRESH_ISR.c **** *
 134:Generated_Source\PSoC5/REFRESH_ISR.c **** *******************************************************************************/
 135:Generated_Source\PSoC5/REFRESH_ISR.c **** void REFRESH_ISR_Stop(void)
 136:Generated_Source\PSoC5/REFRESH_ISR.c **** {
 137:Generated_Source\PSoC5/REFRESH_ISR.c ****     /* Disable this interrupt. */
 138:Generated_Source\PSoC5/REFRESH_ISR.c ****     REFRESH_ISR_Disable();
 139:Generated_Source\PSoC5/REFRESH_ISR.c **** 
 140:Generated_Source\PSoC5/REFRESH_ISR.c ****     /* Set the ISR to point to the passive one. */
 141:Generated_Source\PSoC5/REFRESH_ISR.c ****     REFRESH_ISR_SetVector(&IntDefaultHandler);
 142:Generated_Source\PSoC5/REFRESH_ISR.c **** }
 143:Generated_Source\PSoC5/REFRESH_ISR.c **** 
 144:Generated_Source\PSoC5/REFRESH_ISR.c **** 
ARM GAS  C:\Users\Will\AppData\Local\Temp\cctsoTrH.s 			page 4


 145:Generated_Source\PSoC5/REFRESH_ISR.c **** /*******************************************************************************
 146:Generated_Source\PSoC5/REFRESH_ISR.c **** * Function Name: REFRESH_ISR_Interrupt
 147:Generated_Source\PSoC5/REFRESH_ISR.c **** ********************************************************************************
 148:Generated_Source\PSoC5/REFRESH_ISR.c **** *
 149:Generated_Source\PSoC5/REFRESH_ISR.c **** * Summary:
 150:Generated_Source\PSoC5/REFRESH_ISR.c **** *   The default Interrupt Service Routine for REFRESH_ISR.
 151:Generated_Source\PSoC5/REFRESH_ISR.c **** *
 152:Generated_Source\PSoC5/REFRESH_ISR.c **** *   Add custom code between the coments to keep the next version of this file
 153:Generated_Source\PSoC5/REFRESH_ISR.c **** *   from over writting your code.
 154:Generated_Source\PSoC5/REFRESH_ISR.c **** *
 155:Generated_Source\PSoC5/REFRESH_ISR.c **** * Parameters:  
 156:Generated_Source\PSoC5/REFRESH_ISR.c **** *
 157:Generated_Source\PSoC5/REFRESH_ISR.c **** * Return:
 158:Generated_Source\PSoC5/REFRESH_ISR.c **** *   None
 159:Generated_Source\PSoC5/REFRESH_ISR.c **** *
 160:Generated_Source\PSoC5/REFRESH_ISR.c **** *******************************************************************************/
 161:Generated_Source\PSoC5/REFRESH_ISR.c **** CY_ISR(REFRESH_ISR_Interrupt)
 162:Generated_Source\PSoC5/REFRESH_ISR.c **** {
  28              		.loc 1 162 0
  29              		.cfi_startproc
  30              		@ args = 0, pretend = 0, frame = 0
  31              		@ frame_needed = 0, uses_anonymous_args = 0
  32 0000 08B5     		push	{r3, lr}
  33              		.cfi_def_cfa_offset 8
  34              		.cfi_offset 3, -8
  35              		.cfi_offset 14, -4
 163:Generated_Source\PSoC5/REFRESH_ISR.c ****     #ifdef REFRESH_ISR_INTERRUPT_INTERRUPT_CALLBACK
 164:Generated_Source\PSoC5/REFRESH_ISR.c ****         REFRESH_ISR_Interrupt_InterruptCallback();
 165:Generated_Source\PSoC5/REFRESH_ISR.c ****     #endif /* REFRESH_ISR_INTERRUPT_INTERRUPT_CALLBACK */ 
 166:Generated_Source\PSoC5/REFRESH_ISR.c **** 
 167:Generated_Source\PSoC5/REFRESH_ISR.c ****     /*  Place your Interrupt code here. */
 168:Generated_Source\PSoC5/REFRESH_ISR.c ****     /* `#START REFRESH_ISR_Interrupt` */
 169:Generated_Source\PSoC5/REFRESH_ISR.c ****     timer_isr_flag =1;
  36              		.loc 1 169 0
  37 0002 0122     		movs	r2, #1
  38 0004 024B     		ldr	r3, .L3
  39 0006 1A70     		strb	r2, [r3]
 170:Generated_Source\PSoC5/REFRESH_ISR.c ****     TIMER_ReadStatusRegister();
  40              		.loc 1 170 0
  41 0008 FFF7FEFF 		bl	TIMER_ReadStatusRegister
  42              	.LVL0:
  43 000c 08BD     		pop	{r3, pc}
  44              	.L4:
  45 000e 00BF     		.align	2
  46              	.L3:
  47 0010 00000000 		.word	timer_isr_flag
  48              		.cfi_endproc
  49              	.LFE3:
  50              		.size	REFRESH_ISR_Interrupt, .-REFRESH_ISR_Interrupt
  51              		.section	.text.REFRESH_ISR_SetVector,"ax",%progbits
  52              		.align	2
  53              		.global	REFRESH_ISR_SetVector
  54              		.thumb
  55              		.thumb_func
  56              		.type	REFRESH_ISR_SetVector, %function
  57              	REFRESH_ISR_SetVector:
  58              	.LFB4:
ARM GAS  C:\Users\Will\AppData\Local\Temp\cctsoTrH.s 			page 5


 171:Generated_Source\PSoC5/REFRESH_ISR.c ****     /* `#END` */
 172:Generated_Source\PSoC5/REFRESH_ISR.c **** }
 173:Generated_Source\PSoC5/REFRESH_ISR.c **** 
 174:Generated_Source\PSoC5/REFRESH_ISR.c **** 
 175:Generated_Source\PSoC5/REFRESH_ISR.c **** /*******************************************************************************
 176:Generated_Source\PSoC5/REFRESH_ISR.c **** * Function Name: REFRESH_ISR_SetVector
 177:Generated_Source\PSoC5/REFRESH_ISR.c **** ********************************************************************************
 178:Generated_Source\PSoC5/REFRESH_ISR.c **** *
 179:Generated_Source\PSoC5/REFRESH_ISR.c **** * Summary:
 180:Generated_Source\PSoC5/REFRESH_ISR.c **** *   Change the ISR vector for the Interrupt. Note calling REFRESH_ISR_Start
 181:Generated_Source\PSoC5/REFRESH_ISR.c **** *   will override any effect this method would have had. To set the vector 
 182:Generated_Source\PSoC5/REFRESH_ISR.c **** *   before the component has been started use REFRESH_ISR_StartEx instead.
 183:Generated_Source\PSoC5/REFRESH_ISR.c **** * 
 184:Generated_Source\PSoC5/REFRESH_ISR.c **** *   When defining ISR functions, the CY_ISR and CY_ISR_PROTO macros should be 
 185:Generated_Source\PSoC5/REFRESH_ISR.c **** *   used to provide consistent definition across compilers:
 186:Generated_Source\PSoC5/REFRESH_ISR.c **** *
 187:Generated_Source\PSoC5/REFRESH_ISR.c **** *   Function definition example:
 188:Generated_Source\PSoC5/REFRESH_ISR.c **** *   CY_ISR(MyISR)
 189:Generated_Source\PSoC5/REFRESH_ISR.c **** *   {
 190:Generated_Source\PSoC5/REFRESH_ISR.c **** *   }
 191:Generated_Source\PSoC5/REFRESH_ISR.c **** *
 192:Generated_Source\PSoC5/REFRESH_ISR.c **** *   Function prototype example:
 193:Generated_Source\PSoC5/REFRESH_ISR.c **** *     CY_ISR_PROTO(MyISR);
 194:Generated_Source\PSoC5/REFRESH_ISR.c **** *
 195:Generated_Source\PSoC5/REFRESH_ISR.c **** * Parameters:
 196:Generated_Source\PSoC5/REFRESH_ISR.c **** *   address: Address of the ISR to set in the interrupt vector table.
 197:Generated_Source\PSoC5/REFRESH_ISR.c **** *
 198:Generated_Source\PSoC5/REFRESH_ISR.c **** * Return:
 199:Generated_Source\PSoC5/REFRESH_ISR.c **** *   None
 200:Generated_Source\PSoC5/REFRESH_ISR.c **** *
 201:Generated_Source\PSoC5/REFRESH_ISR.c **** *******************************************************************************/
 202:Generated_Source\PSoC5/REFRESH_ISR.c **** void REFRESH_ISR_SetVector(cyisraddress address)
 203:Generated_Source\PSoC5/REFRESH_ISR.c **** {
  59              		.loc 1 203 0
  60              		.cfi_startproc
  61              		@ args = 0, pretend = 0, frame = 0
  62              		@ frame_needed = 0, uses_anonymous_args = 0
  63              		@ link register save eliminated.
  64              	.LVL1:
 204:Generated_Source\PSoC5/REFRESH_ISR.c ****     cyisraddress * ramVectorTable;
 205:Generated_Source\PSoC5/REFRESH_ISR.c **** 
 206:Generated_Source\PSoC5/REFRESH_ISR.c ****     ramVectorTable = (cyisraddress *) *CYINT_VECT_TABLE;
  65              		.loc 1 206 0
  66 0000 024B     		ldr	r3, .L6
  67 0002 1B68     		ldr	r3, [r3]
  68              	.LVL2:
 207:Generated_Source\PSoC5/REFRESH_ISR.c **** 
 208:Generated_Source\PSoC5/REFRESH_ISR.c ****     ramVectorTable[CYINT_IRQ_BASE + (uint32)REFRESH_ISR__INTC_NUMBER] = address;
  69              		.loc 1 208 0
  70 0004 C3F88800 		str	r0, [r3, #136]
  71 0008 7047     		bx	lr
  72              	.L7:
  73 000a 00BF     		.align	2
  74              	.L6:
  75 000c 08ED00E0 		.word	-536810232
  76              		.cfi_endproc
  77              	.LFE4:
ARM GAS  C:\Users\Will\AppData\Local\Temp\cctsoTrH.s 			page 6


  78              		.size	REFRESH_ISR_SetVector, .-REFRESH_ISR_SetVector
  79              		.section	.text.REFRESH_ISR_GetVector,"ax",%progbits
  80              		.align	2
  81              		.global	REFRESH_ISR_GetVector
  82              		.thumb
  83              		.thumb_func
  84              		.type	REFRESH_ISR_GetVector, %function
  85              	REFRESH_ISR_GetVector:
  86              	.LFB5:
 209:Generated_Source\PSoC5/REFRESH_ISR.c **** }
 210:Generated_Source\PSoC5/REFRESH_ISR.c **** 
 211:Generated_Source\PSoC5/REFRESH_ISR.c **** 
 212:Generated_Source\PSoC5/REFRESH_ISR.c **** /*******************************************************************************
 213:Generated_Source\PSoC5/REFRESH_ISR.c **** * Function Name: REFRESH_ISR_GetVector
 214:Generated_Source\PSoC5/REFRESH_ISR.c **** ********************************************************************************
 215:Generated_Source\PSoC5/REFRESH_ISR.c **** *
 216:Generated_Source\PSoC5/REFRESH_ISR.c **** * Summary:
 217:Generated_Source\PSoC5/REFRESH_ISR.c **** *   Gets the "address" of the current ISR vector for the Interrupt.
 218:Generated_Source\PSoC5/REFRESH_ISR.c **** *
 219:Generated_Source\PSoC5/REFRESH_ISR.c **** * Parameters:
 220:Generated_Source\PSoC5/REFRESH_ISR.c **** *   None
 221:Generated_Source\PSoC5/REFRESH_ISR.c **** *
 222:Generated_Source\PSoC5/REFRESH_ISR.c **** * Return:
 223:Generated_Source\PSoC5/REFRESH_ISR.c **** *   Address of the ISR in the interrupt vector table.
 224:Generated_Source\PSoC5/REFRESH_ISR.c **** *
 225:Generated_Source\PSoC5/REFRESH_ISR.c **** *******************************************************************************/
 226:Generated_Source\PSoC5/REFRESH_ISR.c **** cyisraddress REFRESH_ISR_GetVector(void)
 227:Generated_Source\PSoC5/REFRESH_ISR.c **** {
  87              		.loc 1 227 0
  88              		.cfi_startproc
  89              		@ args = 0, pretend = 0, frame = 0
  90              		@ frame_needed = 0, uses_anonymous_args = 0
  91              		@ link register save eliminated.
 228:Generated_Source\PSoC5/REFRESH_ISR.c ****     cyisraddress * ramVectorTable;
 229:Generated_Source\PSoC5/REFRESH_ISR.c **** 
 230:Generated_Source\PSoC5/REFRESH_ISR.c ****     ramVectorTable = (cyisraddress *) *CYINT_VECT_TABLE;
  92              		.loc 1 230 0
  93 0000 024B     		ldr	r3, .L9
  94 0002 1B68     		ldr	r3, [r3]
  95              	.LVL3:
 231:Generated_Source\PSoC5/REFRESH_ISR.c **** 
 232:Generated_Source\PSoC5/REFRESH_ISR.c ****     return ramVectorTable[CYINT_IRQ_BASE + (uint32)REFRESH_ISR__INTC_NUMBER];
 233:Generated_Source\PSoC5/REFRESH_ISR.c **** }
  96              		.loc 1 233 0
  97 0004 D3F88800 		ldr	r0, [r3, #136]
  98 0008 7047     		bx	lr
  99              	.L10:
 100 000a 00BF     		.align	2
 101              	.L9:
 102 000c 08ED00E0 		.word	-536810232
 103              		.cfi_endproc
 104              	.LFE5:
 105              		.size	REFRESH_ISR_GetVector, .-REFRESH_ISR_GetVector
 106              		.section	.text.REFRESH_ISR_SetPriority,"ax",%progbits
 107              		.align	2
 108              		.global	REFRESH_ISR_SetPriority
 109              		.thumb
ARM GAS  C:\Users\Will\AppData\Local\Temp\cctsoTrH.s 			page 7


 110              		.thumb_func
 111              		.type	REFRESH_ISR_SetPriority, %function
 112              	REFRESH_ISR_SetPriority:
 113              	.LFB6:
 234:Generated_Source\PSoC5/REFRESH_ISR.c **** 
 235:Generated_Source\PSoC5/REFRESH_ISR.c **** 
 236:Generated_Source\PSoC5/REFRESH_ISR.c **** /*******************************************************************************
 237:Generated_Source\PSoC5/REFRESH_ISR.c **** * Function Name: REFRESH_ISR_SetPriority
 238:Generated_Source\PSoC5/REFRESH_ISR.c **** ********************************************************************************
 239:Generated_Source\PSoC5/REFRESH_ISR.c **** *
 240:Generated_Source\PSoC5/REFRESH_ISR.c **** * Summary:
 241:Generated_Source\PSoC5/REFRESH_ISR.c **** *   Sets the Priority of the Interrupt. 
 242:Generated_Source\PSoC5/REFRESH_ISR.c **** *
 243:Generated_Source\PSoC5/REFRESH_ISR.c **** *   Note calling REFRESH_ISR_Start or REFRESH_ISR_StartEx will 
 244:Generated_Source\PSoC5/REFRESH_ISR.c **** *   override any effect this API would have had. This API should only be called
 245:Generated_Source\PSoC5/REFRESH_ISR.c **** *   after REFRESH_ISR_Start or REFRESH_ISR_StartEx has been called. 
 246:Generated_Source\PSoC5/REFRESH_ISR.c **** *   To set the initial priority for the component, use the Design-Wide Resources
 247:Generated_Source\PSoC5/REFRESH_ISR.c **** *   Interrupt Editor.
 248:Generated_Source\PSoC5/REFRESH_ISR.c **** *
 249:Generated_Source\PSoC5/REFRESH_ISR.c **** *   Note This API has no effect on Non-maskable interrupt NMI).
 250:Generated_Source\PSoC5/REFRESH_ISR.c **** *
 251:Generated_Source\PSoC5/REFRESH_ISR.c **** * Parameters:
 252:Generated_Source\PSoC5/REFRESH_ISR.c **** *   priority: Priority of the interrupt, 0 being the highest priority
 253:Generated_Source\PSoC5/REFRESH_ISR.c **** *             PSoC 3 and PSoC 5LP: Priority is from 0 to 7.
 254:Generated_Source\PSoC5/REFRESH_ISR.c **** *             PSoC 4: Priority is from 0 to 3.
 255:Generated_Source\PSoC5/REFRESH_ISR.c **** *
 256:Generated_Source\PSoC5/REFRESH_ISR.c **** * Return:
 257:Generated_Source\PSoC5/REFRESH_ISR.c **** *   None
 258:Generated_Source\PSoC5/REFRESH_ISR.c **** *
 259:Generated_Source\PSoC5/REFRESH_ISR.c **** *******************************************************************************/
 260:Generated_Source\PSoC5/REFRESH_ISR.c **** void REFRESH_ISR_SetPriority(uint8 priority)
 261:Generated_Source\PSoC5/REFRESH_ISR.c **** {
 114              		.loc 1 261 0
 115              		.cfi_startproc
 116              		@ args = 0, pretend = 0, frame = 0
 117              		@ frame_needed = 0, uses_anonymous_args = 0
 118              		@ link register save eliminated.
 119              	.LVL4:
 262:Generated_Source\PSoC5/REFRESH_ISR.c ****     *REFRESH_ISR_INTC_PRIOR = priority << 5;
 120              		.loc 1 262 0
 121 0000 4001     		lsls	r0, r0, #5
 122              	.LVL5:
 123 0002 C0B2     		uxtb	r0, r0
 124 0004 014B     		ldr	r3, .L12
 125 0006 1870     		strb	r0, [r3]
 126 0008 7047     		bx	lr
 127              	.L13:
 128 000a 00BF     		.align	2
 129              	.L12:
 130 000c 12E400E0 		.word	-536812526
 131              		.cfi_endproc
 132              	.LFE6:
 133              		.size	REFRESH_ISR_SetPriority, .-REFRESH_ISR_SetPriority
 134              		.section	.text.REFRESH_ISR_GetPriority,"ax",%progbits
 135              		.align	2
 136              		.global	REFRESH_ISR_GetPriority
 137              		.thumb
ARM GAS  C:\Users\Will\AppData\Local\Temp\cctsoTrH.s 			page 8


 138              		.thumb_func
 139              		.type	REFRESH_ISR_GetPriority, %function
 140              	REFRESH_ISR_GetPriority:
 141              	.LFB7:
 263:Generated_Source\PSoC5/REFRESH_ISR.c **** }
 264:Generated_Source\PSoC5/REFRESH_ISR.c **** 
 265:Generated_Source\PSoC5/REFRESH_ISR.c **** 
 266:Generated_Source\PSoC5/REFRESH_ISR.c **** /*******************************************************************************
 267:Generated_Source\PSoC5/REFRESH_ISR.c **** * Function Name: REFRESH_ISR_GetPriority
 268:Generated_Source\PSoC5/REFRESH_ISR.c **** ********************************************************************************
 269:Generated_Source\PSoC5/REFRESH_ISR.c **** *
 270:Generated_Source\PSoC5/REFRESH_ISR.c **** * Summary:
 271:Generated_Source\PSoC5/REFRESH_ISR.c **** *   Gets the Priority of the Interrupt.
 272:Generated_Source\PSoC5/REFRESH_ISR.c **** *
 273:Generated_Source\PSoC5/REFRESH_ISR.c **** * Parameters:
 274:Generated_Source\PSoC5/REFRESH_ISR.c **** *   None
 275:Generated_Source\PSoC5/REFRESH_ISR.c **** *
 276:Generated_Source\PSoC5/REFRESH_ISR.c **** * Return:
 277:Generated_Source\PSoC5/REFRESH_ISR.c **** *   Priority of the interrupt, 0 being the highest priority
 278:Generated_Source\PSoC5/REFRESH_ISR.c **** *    PSoC 3 and PSoC 5LP: Priority is from 0 to 7.
 279:Generated_Source\PSoC5/REFRESH_ISR.c **** *    PSoC 4: Priority is from 0 to 3.
 280:Generated_Source\PSoC5/REFRESH_ISR.c **** *
 281:Generated_Source\PSoC5/REFRESH_ISR.c **** *******************************************************************************/
 282:Generated_Source\PSoC5/REFRESH_ISR.c **** uint8 REFRESH_ISR_GetPriority(void)
 283:Generated_Source\PSoC5/REFRESH_ISR.c **** {
 142              		.loc 1 283 0
 143              		.cfi_startproc
 144              		@ args = 0, pretend = 0, frame = 0
 145              		@ frame_needed = 0, uses_anonymous_args = 0
 146              		@ link register save eliminated.
 284:Generated_Source\PSoC5/REFRESH_ISR.c ****     uint8 priority;
 285:Generated_Source\PSoC5/REFRESH_ISR.c **** 
 286:Generated_Source\PSoC5/REFRESH_ISR.c **** 
 287:Generated_Source\PSoC5/REFRESH_ISR.c ****     priority = *REFRESH_ISR_INTC_PRIOR >> 5;
 147              		.loc 1 287 0
 148 0000 014B     		ldr	r3, .L15
 149 0002 1878     		ldrb	r0, [r3]	@ zero_extendqisi2
 150              	.LVL6:
 288:Generated_Source\PSoC5/REFRESH_ISR.c **** 
 289:Generated_Source\PSoC5/REFRESH_ISR.c ****     return priority;
 290:Generated_Source\PSoC5/REFRESH_ISR.c **** }
 151              		.loc 1 290 0
 152 0004 4009     		lsrs	r0, r0, #5
 153              	.LVL7:
 154 0006 7047     		bx	lr
 155              	.L16:
 156              		.align	2
 157              	.L15:
 158 0008 12E400E0 		.word	-536812526
 159              		.cfi_endproc
 160              	.LFE7:
 161              		.size	REFRESH_ISR_GetPriority, .-REFRESH_ISR_GetPriority
 162              		.section	.text.REFRESH_ISR_Enable,"ax",%progbits
 163              		.align	2
 164              		.global	REFRESH_ISR_Enable
 165              		.thumb
 166              		.thumb_func
ARM GAS  C:\Users\Will\AppData\Local\Temp\cctsoTrH.s 			page 9


 167              		.type	REFRESH_ISR_Enable, %function
 168              	REFRESH_ISR_Enable:
 169              	.LFB8:
 291:Generated_Source\PSoC5/REFRESH_ISR.c **** 
 292:Generated_Source\PSoC5/REFRESH_ISR.c **** 
 293:Generated_Source\PSoC5/REFRESH_ISR.c **** /*******************************************************************************
 294:Generated_Source\PSoC5/REFRESH_ISR.c **** * Function Name: REFRESH_ISR_Enable
 295:Generated_Source\PSoC5/REFRESH_ISR.c **** ********************************************************************************
 296:Generated_Source\PSoC5/REFRESH_ISR.c **** *
 297:Generated_Source\PSoC5/REFRESH_ISR.c **** * Summary:
 298:Generated_Source\PSoC5/REFRESH_ISR.c **** *   Enables the interrupt to the interrupt controller. Do not call this function
 299:Generated_Source\PSoC5/REFRESH_ISR.c **** *   unless ISR_Start() has been called or the functionality of the ISR_Start() 
 300:Generated_Source\PSoC5/REFRESH_ISR.c **** *   function, which sets the vector and the priority, has been called.
 301:Generated_Source\PSoC5/REFRESH_ISR.c **** *
 302:Generated_Source\PSoC5/REFRESH_ISR.c **** * Parameters:
 303:Generated_Source\PSoC5/REFRESH_ISR.c **** *   None
 304:Generated_Source\PSoC5/REFRESH_ISR.c **** *
 305:Generated_Source\PSoC5/REFRESH_ISR.c **** * Return:
 306:Generated_Source\PSoC5/REFRESH_ISR.c **** *   None
 307:Generated_Source\PSoC5/REFRESH_ISR.c **** *
 308:Generated_Source\PSoC5/REFRESH_ISR.c **** *******************************************************************************/
 309:Generated_Source\PSoC5/REFRESH_ISR.c **** void REFRESH_ISR_Enable(void)
 310:Generated_Source\PSoC5/REFRESH_ISR.c **** {
 170              		.loc 1 310 0
 171              		.cfi_startproc
 172              		@ args = 0, pretend = 0, frame = 0
 173              		@ frame_needed = 0, uses_anonymous_args = 0
 174              		@ link register save eliminated.
 311:Generated_Source\PSoC5/REFRESH_ISR.c ****     /* Enable the general interrupt. */
 312:Generated_Source\PSoC5/REFRESH_ISR.c ****     *REFRESH_ISR_INTC_SET_EN = REFRESH_ISR__INTC_MASK;
 175              		.loc 1 312 0
 176 0000 4FF48022 		mov	r2, #262144
 177 0004 014B     		ldr	r3, .L18
 178 0006 1A60     		str	r2, [r3]
 179 0008 7047     		bx	lr
 180              	.L19:
 181 000a 00BF     		.align	2
 182              	.L18:
 183 000c 00E100E0 		.word	-536813312
 184              		.cfi_endproc
 185              	.LFE8:
 186              		.size	REFRESH_ISR_Enable, .-REFRESH_ISR_Enable
 187              		.section	.text.REFRESH_ISR_GetState,"ax",%progbits
 188              		.align	2
 189              		.global	REFRESH_ISR_GetState
 190              		.thumb
 191              		.thumb_func
 192              		.type	REFRESH_ISR_GetState, %function
 193              	REFRESH_ISR_GetState:
 194              	.LFB9:
 313:Generated_Source\PSoC5/REFRESH_ISR.c **** }
 314:Generated_Source\PSoC5/REFRESH_ISR.c **** 
 315:Generated_Source\PSoC5/REFRESH_ISR.c **** 
 316:Generated_Source\PSoC5/REFRESH_ISR.c **** /*******************************************************************************
 317:Generated_Source\PSoC5/REFRESH_ISR.c **** * Function Name: REFRESH_ISR_GetState
 318:Generated_Source\PSoC5/REFRESH_ISR.c **** ********************************************************************************
 319:Generated_Source\PSoC5/REFRESH_ISR.c **** *
ARM GAS  C:\Users\Will\AppData\Local\Temp\cctsoTrH.s 			page 10


 320:Generated_Source\PSoC5/REFRESH_ISR.c **** * Summary:
 321:Generated_Source\PSoC5/REFRESH_ISR.c **** *   Gets the state (enabled, disabled) of the Interrupt.
 322:Generated_Source\PSoC5/REFRESH_ISR.c **** *
 323:Generated_Source\PSoC5/REFRESH_ISR.c **** * Parameters:
 324:Generated_Source\PSoC5/REFRESH_ISR.c **** *   None
 325:Generated_Source\PSoC5/REFRESH_ISR.c **** *
 326:Generated_Source\PSoC5/REFRESH_ISR.c **** * Return:
 327:Generated_Source\PSoC5/REFRESH_ISR.c **** *   1 if enabled, 0 if disabled.
 328:Generated_Source\PSoC5/REFRESH_ISR.c **** *
 329:Generated_Source\PSoC5/REFRESH_ISR.c **** *******************************************************************************/
 330:Generated_Source\PSoC5/REFRESH_ISR.c **** uint8 REFRESH_ISR_GetState(void)
 331:Generated_Source\PSoC5/REFRESH_ISR.c **** {
 195              		.loc 1 331 0
 196              		.cfi_startproc
 197              		@ args = 0, pretend = 0, frame = 0
 198              		@ frame_needed = 0, uses_anonymous_args = 0
 199              		@ link register save eliminated.
 332:Generated_Source\PSoC5/REFRESH_ISR.c ****     /* Get the state of the general interrupt. */
 333:Generated_Source\PSoC5/REFRESH_ISR.c ****     return ((*REFRESH_ISR_INTC_SET_EN & (uint32)REFRESH_ISR__INTC_MASK) != 0u) ? 1u:0u;
 200              		.loc 1 333 0
 201 0000 044B     		ldr	r3, .L23
 202 0002 1B68     		ldr	r3, [r3]
 203 0004 13F4802F 		tst	r3, #262144
 204 0008 01D0     		beq	.L22
 205 000a 0120     		movs	r0, #1
 206 000c 7047     		bx	lr
 207              	.L22:
 208 000e 0020     		movs	r0, #0
 334:Generated_Source\PSoC5/REFRESH_ISR.c **** }
 209              		.loc 1 334 0
 210 0010 7047     		bx	lr
 211              	.L24:
 212 0012 00BF     		.align	2
 213              	.L23:
 214 0014 00E100E0 		.word	-536813312
 215              		.cfi_endproc
 216              	.LFE9:
 217              		.size	REFRESH_ISR_GetState, .-REFRESH_ISR_GetState
 218              		.section	.text.REFRESH_ISR_Disable,"ax",%progbits
 219              		.align	2
 220              		.global	REFRESH_ISR_Disable
 221              		.thumb
 222              		.thumb_func
 223              		.type	REFRESH_ISR_Disable, %function
 224              	REFRESH_ISR_Disable:
 225              	.LFB10:
 335:Generated_Source\PSoC5/REFRESH_ISR.c **** 
 336:Generated_Source\PSoC5/REFRESH_ISR.c **** 
 337:Generated_Source\PSoC5/REFRESH_ISR.c **** /*******************************************************************************
 338:Generated_Source\PSoC5/REFRESH_ISR.c **** * Function Name: REFRESH_ISR_Disable
 339:Generated_Source\PSoC5/REFRESH_ISR.c **** ********************************************************************************
 340:Generated_Source\PSoC5/REFRESH_ISR.c **** *
 341:Generated_Source\PSoC5/REFRESH_ISR.c **** * Summary:
 342:Generated_Source\PSoC5/REFRESH_ISR.c **** *   Disables the Interrupt in the interrupt controller.
 343:Generated_Source\PSoC5/REFRESH_ISR.c **** *
 344:Generated_Source\PSoC5/REFRESH_ISR.c **** * Parameters:
 345:Generated_Source\PSoC5/REFRESH_ISR.c **** *   None
ARM GAS  C:\Users\Will\AppData\Local\Temp\cctsoTrH.s 			page 11


 346:Generated_Source\PSoC5/REFRESH_ISR.c **** *
 347:Generated_Source\PSoC5/REFRESH_ISR.c **** * Return:
 348:Generated_Source\PSoC5/REFRESH_ISR.c **** *   None
 349:Generated_Source\PSoC5/REFRESH_ISR.c **** *
 350:Generated_Source\PSoC5/REFRESH_ISR.c **** *******************************************************************************/
 351:Generated_Source\PSoC5/REFRESH_ISR.c **** void REFRESH_ISR_Disable(void)
 352:Generated_Source\PSoC5/REFRESH_ISR.c **** {
 226              		.loc 1 352 0
 227              		.cfi_startproc
 228              		@ args = 0, pretend = 0, frame = 0
 229              		@ frame_needed = 0, uses_anonymous_args = 0
 230              		@ link register save eliminated.
 353:Generated_Source\PSoC5/REFRESH_ISR.c ****     /* Disable the general interrupt. */
 354:Generated_Source\PSoC5/REFRESH_ISR.c ****     *REFRESH_ISR_INTC_CLR_EN = REFRESH_ISR__INTC_MASK;
 231              		.loc 1 354 0
 232 0000 4FF48022 		mov	r2, #262144
 233 0004 014B     		ldr	r3, .L26
 234 0006 1A60     		str	r2, [r3]
 235 0008 7047     		bx	lr
 236              	.L27:
 237 000a 00BF     		.align	2
 238              	.L26:
 239 000c 80E100E0 		.word	-536813184
 240              		.cfi_endproc
 241              	.LFE10:
 242              		.size	REFRESH_ISR_Disable, .-REFRESH_ISR_Disable
 243              		.section	.text.REFRESH_ISR_Start,"ax",%progbits
 244              		.align	2
 245              		.global	REFRESH_ISR_Start
 246              		.thumb
 247              		.thumb_func
 248              		.type	REFRESH_ISR_Start, %function
 249              	REFRESH_ISR_Start:
 250              	.LFB0:
  63:Generated_Source\PSoC5/REFRESH_ISR.c ****     /* For all we know the interrupt is active. */
 251              		.loc 1 63 0
 252              		.cfi_startproc
 253              		@ args = 0, pretend = 0, frame = 0
 254              		@ frame_needed = 0, uses_anonymous_args = 0
 255 0000 08B5     		push	{r3, lr}
 256              		.cfi_def_cfa_offset 8
 257              		.cfi_offset 3, -8
 258              		.cfi_offset 14, -4
  65:Generated_Source\PSoC5/REFRESH_ISR.c **** 
 259              		.loc 1 65 0
 260 0002 FFF7FEFF 		bl	REFRESH_ISR_Disable
 261              	.LVL8:
  68:Generated_Source\PSoC5/REFRESH_ISR.c **** 
 262              		.loc 1 68 0
 263 0006 0448     		ldr	r0, .L30
 264 0008 FFF7FEFF 		bl	REFRESH_ISR_SetVector
 265              	.LVL9:
  71:Generated_Source\PSoC5/REFRESH_ISR.c **** 
 266              		.loc 1 71 0
 267 000c 0720     		movs	r0, #7
 268 000e FFF7FEFF 		bl	REFRESH_ISR_SetPriority
 269              	.LVL10:
ARM GAS  C:\Users\Will\AppData\Local\Temp\cctsoTrH.s 			page 12


  74:Generated_Source\PSoC5/REFRESH_ISR.c **** }
 270              		.loc 1 74 0
 271 0012 FFF7FEFF 		bl	REFRESH_ISR_Enable
 272              	.LVL11:
 273 0016 08BD     		pop	{r3, pc}
 274              	.L31:
 275              		.align	2
 276              	.L30:
 277 0018 00000000 		.word	REFRESH_ISR_Interrupt
 278              		.cfi_endproc
 279              	.LFE0:
 280              		.size	REFRESH_ISR_Start, .-REFRESH_ISR_Start
 281              		.section	.text.REFRESH_ISR_StartEx,"ax",%progbits
 282              		.align	2
 283              		.global	REFRESH_ISR_StartEx
 284              		.thumb
 285              		.thumb_func
 286              		.type	REFRESH_ISR_StartEx, %function
 287              	REFRESH_ISR_StartEx:
 288              	.LFB1:
 106:Generated_Source\PSoC5/REFRESH_ISR.c ****     /* For all we know the interrupt is active. */
 289              		.loc 1 106 0
 290              		.cfi_startproc
 291              		@ args = 0, pretend = 0, frame = 0
 292              		@ frame_needed = 0, uses_anonymous_args = 0
 293              	.LVL12:
 294 0000 10B5     		push	{r4, lr}
 295              		.cfi_def_cfa_offset 8
 296              		.cfi_offset 4, -8
 297              		.cfi_offset 14, -4
 298 0002 0446     		mov	r4, r0
 108:Generated_Source\PSoC5/REFRESH_ISR.c **** 
 299              		.loc 1 108 0
 300 0004 FFF7FEFF 		bl	REFRESH_ISR_Disable
 301              	.LVL13:
 111:Generated_Source\PSoC5/REFRESH_ISR.c **** 
 302              		.loc 1 111 0
 303 0008 2046     		mov	r0, r4
 304 000a FFF7FEFF 		bl	REFRESH_ISR_SetVector
 305              	.LVL14:
 114:Generated_Source\PSoC5/REFRESH_ISR.c **** 
 306              		.loc 1 114 0
 307 000e 0720     		movs	r0, #7
 308 0010 FFF7FEFF 		bl	REFRESH_ISR_SetPriority
 309              	.LVL15:
 117:Generated_Source\PSoC5/REFRESH_ISR.c **** }
 310              		.loc 1 117 0
 311 0014 FFF7FEFF 		bl	REFRESH_ISR_Enable
 312              	.LVL16:
 313 0018 10BD     		pop	{r4, pc}
 314              		.cfi_endproc
 315              	.LFE1:
 316              		.size	REFRESH_ISR_StartEx, .-REFRESH_ISR_StartEx
 317 001a 00BF     		.section	.text.REFRESH_ISR_Stop,"ax",%progbits
 318              		.align	2
 319              		.global	REFRESH_ISR_Stop
 320              		.thumb
ARM GAS  C:\Users\Will\AppData\Local\Temp\cctsoTrH.s 			page 13


 321              		.thumb_func
 322              		.type	REFRESH_ISR_Stop, %function
 323              	REFRESH_ISR_Stop:
 324              	.LFB2:
 136:Generated_Source\PSoC5/REFRESH_ISR.c ****     /* Disable this interrupt. */
 325              		.loc 1 136 0
 326              		.cfi_startproc
 327              		@ args = 0, pretend = 0, frame = 0
 328              		@ frame_needed = 0, uses_anonymous_args = 0
 329 0000 08B5     		push	{r3, lr}
 330              		.cfi_def_cfa_offset 8
 331              		.cfi_offset 3, -8
 332              		.cfi_offset 14, -4
 138:Generated_Source\PSoC5/REFRESH_ISR.c **** 
 333              		.loc 1 138 0
 334 0002 FFF7FEFF 		bl	REFRESH_ISR_Disable
 335              	.LVL17:
 141:Generated_Source\PSoC5/REFRESH_ISR.c **** }
 336              		.loc 1 141 0
 337 0006 0248     		ldr	r0, .L36
 338 0008 FFF7FEFF 		bl	REFRESH_ISR_SetVector
 339              	.LVL18:
 340 000c 08BD     		pop	{r3, pc}
 341              	.L37:
 342 000e 00BF     		.align	2
 343              	.L36:
 344 0010 00000000 		.word	IntDefaultHandler
 345              		.cfi_endproc
 346              	.LFE2:
 347              		.size	REFRESH_ISR_Stop, .-REFRESH_ISR_Stop
 348              		.section	.text.REFRESH_ISR_SetPending,"ax",%progbits
 349              		.align	2
 350              		.global	REFRESH_ISR_SetPending
 351              		.thumb
 352              		.thumb_func
 353              		.type	REFRESH_ISR_SetPending, %function
 354              	REFRESH_ISR_SetPending:
 355              	.LFB11:
 355:Generated_Source\PSoC5/REFRESH_ISR.c **** }
 356:Generated_Source\PSoC5/REFRESH_ISR.c **** 
 357:Generated_Source\PSoC5/REFRESH_ISR.c **** 
 358:Generated_Source\PSoC5/REFRESH_ISR.c **** /*******************************************************************************
 359:Generated_Source\PSoC5/REFRESH_ISR.c **** * Function Name: REFRESH_ISR_SetPending
 360:Generated_Source\PSoC5/REFRESH_ISR.c **** ********************************************************************************
 361:Generated_Source\PSoC5/REFRESH_ISR.c **** *
 362:Generated_Source\PSoC5/REFRESH_ISR.c **** * Summary:
 363:Generated_Source\PSoC5/REFRESH_ISR.c **** *   Causes the Interrupt to enter the pending state, a software method of
 364:Generated_Source\PSoC5/REFRESH_ISR.c **** *   generating the interrupt.
 365:Generated_Source\PSoC5/REFRESH_ISR.c **** *
 366:Generated_Source\PSoC5/REFRESH_ISR.c **** * Parameters:
 367:Generated_Source\PSoC5/REFRESH_ISR.c **** *   None
 368:Generated_Source\PSoC5/REFRESH_ISR.c **** *
 369:Generated_Source\PSoC5/REFRESH_ISR.c **** * Return:
 370:Generated_Source\PSoC5/REFRESH_ISR.c **** *   None
 371:Generated_Source\PSoC5/REFRESH_ISR.c **** *
 372:Generated_Source\PSoC5/REFRESH_ISR.c **** * Side Effects:
 373:Generated_Source\PSoC5/REFRESH_ISR.c **** *   If interrupts are enabled and the interrupt is set up properly, the ISR is
ARM GAS  C:\Users\Will\AppData\Local\Temp\cctsoTrH.s 			page 14


 374:Generated_Source\PSoC5/REFRESH_ISR.c **** *   entered (depending on the priority of this interrupt and other pending 
 375:Generated_Source\PSoC5/REFRESH_ISR.c **** *   interrupts).
 376:Generated_Source\PSoC5/REFRESH_ISR.c **** *
 377:Generated_Source\PSoC5/REFRESH_ISR.c **** *******************************************************************************/
 378:Generated_Source\PSoC5/REFRESH_ISR.c **** void REFRESH_ISR_SetPending(void)
 379:Generated_Source\PSoC5/REFRESH_ISR.c **** {
 356              		.loc 1 379 0
 357              		.cfi_startproc
 358              		@ args = 0, pretend = 0, frame = 0
 359              		@ frame_needed = 0, uses_anonymous_args = 0
 360              		@ link register save eliminated.
 380:Generated_Source\PSoC5/REFRESH_ISR.c ****     *REFRESH_ISR_INTC_SET_PD = REFRESH_ISR__INTC_MASK;
 361              		.loc 1 380 0
 362 0000 4FF48022 		mov	r2, #262144
 363 0004 014B     		ldr	r3, .L39
 364 0006 1A60     		str	r2, [r3]
 365 0008 7047     		bx	lr
 366              	.L40:
 367 000a 00BF     		.align	2
 368              	.L39:
 369 000c 00E200E0 		.word	-536813056
 370              		.cfi_endproc
 371              	.LFE11:
 372              		.size	REFRESH_ISR_SetPending, .-REFRESH_ISR_SetPending
 373              		.section	.text.REFRESH_ISR_ClearPending,"ax",%progbits
 374              		.align	2
 375              		.global	REFRESH_ISR_ClearPending
 376              		.thumb
 377              		.thumb_func
 378              		.type	REFRESH_ISR_ClearPending, %function
 379              	REFRESH_ISR_ClearPending:
 380              	.LFB12:
 381:Generated_Source\PSoC5/REFRESH_ISR.c **** }
 382:Generated_Source\PSoC5/REFRESH_ISR.c **** 
 383:Generated_Source\PSoC5/REFRESH_ISR.c **** 
 384:Generated_Source\PSoC5/REFRESH_ISR.c **** /*******************************************************************************
 385:Generated_Source\PSoC5/REFRESH_ISR.c **** * Function Name: REFRESH_ISR_ClearPending
 386:Generated_Source\PSoC5/REFRESH_ISR.c **** ********************************************************************************
 387:Generated_Source\PSoC5/REFRESH_ISR.c **** *
 388:Generated_Source\PSoC5/REFRESH_ISR.c **** * Summary:
 389:Generated_Source\PSoC5/REFRESH_ISR.c **** *   Clears a pending interrupt in the interrupt controller.
 390:Generated_Source\PSoC5/REFRESH_ISR.c **** *
 391:Generated_Source\PSoC5/REFRESH_ISR.c **** *   Note Some interrupt sources are clear-on-read and require the block 
 392:Generated_Source\PSoC5/REFRESH_ISR.c **** *   interrupt/status register to be read/cleared with the appropriate block API 
 393:Generated_Source\PSoC5/REFRESH_ISR.c **** *   (GPIO, UART, and so on). Otherwise the ISR will continue to remain in 
 394:Generated_Source\PSoC5/REFRESH_ISR.c **** *   pending state even though the interrupt itself is cleared using this API.
 395:Generated_Source\PSoC5/REFRESH_ISR.c **** *
 396:Generated_Source\PSoC5/REFRESH_ISR.c **** * Parameters:
 397:Generated_Source\PSoC5/REFRESH_ISR.c **** *   None
 398:Generated_Source\PSoC5/REFRESH_ISR.c **** *
 399:Generated_Source\PSoC5/REFRESH_ISR.c **** * Return:
 400:Generated_Source\PSoC5/REFRESH_ISR.c **** *   None
 401:Generated_Source\PSoC5/REFRESH_ISR.c **** *
 402:Generated_Source\PSoC5/REFRESH_ISR.c **** *******************************************************************************/
 403:Generated_Source\PSoC5/REFRESH_ISR.c **** void REFRESH_ISR_ClearPending(void)
 404:Generated_Source\PSoC5/REFRESH_ISR.c **** {
 381              		.loc 1 404 0
ARM GAS  C:\Users\Will\AppData\Local\Temp\cctsoTrH.s 			page 15


 382              		.cfi_startproc
 383              		@ args = 0, pretend = 0, frame = 0
 384              		@ frame_needed = 0, uses_anonymous_args = 0
 385              		@ link register save eliminated.
 405:Generated_Source\PSoC5/REFRESH_ISR.c ****     *REFRESH_ISR_INTC_CLR_PD = REFRESH_ISR__INTC_MASK;
 386              		.loc 1 405 0
 387 0000 4FF48022 		mov	r2, #262144
 388 0004 014B     		ldr	r3, .L42
 389 0006 1A60     		str	r2, [r3]
 390 0008 7047     		bx	lr
 391              	.L43:
 392 000a 00BF     		.align	2
 393              	.L42:
 394 000c 80E200E0 		.word	-536812928
 395              		.cfi_endproc
 396              	.LFE12:
 397              		.size	REFRESH_ISR_ClearPending, .-REFRESH_ISR_ClearPending
 398              		.comm	timer_isr_flag,1,1
 399              		.text
 400              	.Letext0:
 401              		.file 2 "Generated_Source\\PSoC5/cytypes.h"
 402              		.file 3 "Generated_Source\\PSoC5\\TIMER.h"